ARM GAS  /tmp/ccSeWx2r.s 			page 1


   1              		.cpu cortex-m7
   2              		.eabi_attribute 28, 1
   3              		.eabi_attribute 20, 1
   4              		.eabi_attribute 21, 1
   5              		.eabi_attribute 23, 3
   6              		.eabi_attribute 24, 1
   7              		.eabi_attribute 25, 1
   8              		.eabi_attribute 26, 1
   9              		.eabi_attribute 30, 1
  10              		.eabi_attribute 34, 1
  11              		.eabi_attribute 18, 4
  12              		.file	"ff_gen_drv.c"
  13              		.text
  14              	.Ltext0:
  15              		.cfi_sections	.debug_frame
  16              		.section	.text.FATFS_LinkDriverEx,"ax",%progbits
  17              		.align	1
  18              		.global	FATFS_LinkDriverEx
  19              		.syntax unified
  20              		.thumb
  21              		.thumb_func
  22              		.fpu fpv5-d16
  24              	FATFS_LinkDriverEx:
  25              	.LFB141:
  26              		.file 1 "Middlewares/Third_Party/FatFs/src/ff_gen_drv.c"
   1:Middlewares/Third_Party/FatFs/src/ff_gen_drv.c **** /**
   2:Middlewares/Third_Party/FatFs/src/ff_gen_drv.c ****   ******************************************************************************
   3:Middlewares/Third_Party/FatFs/src/ff_gen_drv.c ****   * @file    ff_gen_drv.c
   4:Middlewares/Third_Party/FatFs/src/ff_gen_drv.c ****   * @author  MCD Application Team
   5:Middlewares/Third_Party/FatFs/src/ff_gen_drv.c ****   * @brief   FatFs generic low level driver.
   6:Middlewares/Third_Party/FatFs/src/ff_gen_drv.c ****   *****************************************************************************
   7:Middlewares/Third_Party/FatFs/src/ff_gen_drv.c ****   * @attention
   8:Middlewares/Third_Party/FatFs/src/ff_gen_drv.c ****   *
   9:Middlewares/Third_Party/FatFs/src/ff_gen_drv.c ****   * <h2><center>&copy; Copyright (c) 2017 STMicroelectronics.
  10:Middlewares/Third_Party/FatFs/src/ff_gen_drv.c ****   * All rights reserved.</center></h2>
  11:Middlewares/Third_Party/FatFs/src/ff_gen_drv.c ****   *
  12:Middlewares/Third_Party/FatFs/src/ff_gen_drv.c ****   * This software component is licensed by ST under Ultimate Liberty license
  13:Middlewares/Third_Party/FatFs/src/ff_gen_drv.c ****   * SLA0044, the "License"; You may not use this file except in compliance with
  14:Middlewares/Third_Party/FatFs/src/ff_gen_drv.c ****   * the License. You may obtain a copy of the License at:
  15:Middlewares/Third_Party/FatFs/src/ff_gen_drv.c ****   *                             www.st.com/SLA0044
  16:Middlewares/Third_Party/FatFs/src/ff_gen_drv.c ****   *
  17:Middlewares/Third_Party/FatFs/src/ff_gen_drv.c ****   ******************************************************************************
  18:Middlewares/Third_Party/FatFs/src/ff_gen_drv.c ****   */
  19:Middlewares/Third_Party/FatFs/src/ff_gen_drv.c **** 
  20:Middlewares/Third_Party/FatFs/src/ff_gen_drv.c **** /* Includes ------------------------------------------------------------------*/
  21:Middlewares/Third_Party/FatFs/src/ff_gen_drv.c **** #include "ff_gen_drv.h"
  22:Middlewares/Third_Party/FatFs/src/ff_gen_drv.c **** 
  23:Middlewares/Third_Party/FatFs/src/ff_gen_drv.c **** /* Private typedef -----------------------------------------------------------*/
  24:Middlewares/Third_Party/FatFs/src/ff_gen_drv.c **** /* Private define ------------------------------------------------------------*/
  25:Middlewares/Third_Party/FatFs/src/ff_gen_drv.c **** /* Private variables ---------------------------------------------------------*/
  26:Middlewares/Third_Party/FatFs/src/ff_gen_drv.c **** Disk_drvTypeDef disk = {{0},{0},{0},0};
  27:Middlewares/Third_Party/FatFs/src/ff_gen_drv.c **** 
  28:Middlewares/Third_Party/FatFs/src/ff_gen_drv.c **** /* Private function prototypes -----------------------------------------------*/
  29:Middlewares/Third_Party/FatFs/src/ff_gen_drv.c **** /* Private functions ---------------------------------------------------------*/
  30:Middlewares/Third_Party/FatFs/src/ff_gen_drv.c **** 
  31:Middlewares/Third_Party/FatFs/src/ff_gen_drv.c **** /**
  32:Middlewares/Third_Party/FatFs/src/ff_gen_drv.c ****   * @brief  Links a compatible diskio driver/lun id and increments the number of active
ARM GAS  /tmp/ccSeWx2r.s 			page 2


  33:Middlewares/Third_Party/FatFs/src/ff_gen_drv.c ****   *         linked drivers.
  34:Middlewares/Third_Party/FatFs/src/ff_gen_drv.c ****   * @note   The number of linked drivers (volumes) is up to 10 due to FatFs limits.
  35:Middlewares/Third_Party/FatFs/src/ff_gen_drv.c ****   * @param  drv: pointer to the disk IO Driver structure
  36:Middlewares/Third_Party/FatFs/src/ff_gen_drv.c ****   * @param  path: pointer to the logical drive path
  37:Middlewares/Third_Party/FatFs/src/ff_gen_drv.c ****   * @param  lun : only used for USB Key Disk to add multi-lun management
  38:Middlewares/Third_Party/FatFs/src/ff_gen_drv.c ****             else the parameter must be equal to 0
  39:Middlewares/Third_Party/FatFs/src/ff_gen_drv.c ****   * @retval Returns 0 in case of success, otherwise 1.
  40:Middlewares/Third_Party/FatFs/src/ff_gen_drv.c ****   */
  41:Middlewares/Third_Party/FatFs/src/ff_gen_drv.c **** uint8_t FATFS_LinkDriverEx(const Diskio_drvTypeDef *drv, char *path, uint8_t lun)
  42:Middlewares/Third_Party/FatFs/src/ff_gen_drv.c **** {
  27              		.loc 1 42 0
  28              		.cfi_startproc
  29              		@ args = 0, pretend = 0, frame = 0
  30              		@ frame_needed = 0, uses_anonymous_args = 0
  31              		@ link register save eliminated.
  32              	.LVL0:
  43:Middlewares/Third_Party/FatFs/src/ff_gen_drv.c ****   uint8_t ret = 1;
  44:Middlewares/Third_Party/FatFs/src/ff_gen_drv.c ****   uint8_t DiskNum = 0;
  45:Middlewares/Third_Party/FatFs/src/ff_gen_drv.c **** 
  46:Middlewares/Third_Party/FatFs/src/ff_gen_drv.c ****   if(disk.nbr < _VOLUMES)
  33              		.loc 1 46 0
  34 0000 104B     		ldr	r3, .L8
  35 0002 5B7A     		ldrb	r3, [r3, #9]	@ zero_extendqisi2
  36 0004 DBB9     		cbnz	r3, .L3
  42:Middlewares/Third_Party/FatFs/src/ff_gen_drv.c ****   uint8_t ret = 1;
  37              		.loc 1 42 0
  38 0006 30B4     		push	{r4, r5}
  39              	.LCFI0:
  40              		.cfi_def_cfa_offset 8
  41              		.cfi_offset 4, -8
  42              		.cfi_offset 5, -4
  47:Middlewares/Third_Party/FatFs/src/ff_gen_drv.c ****   {
  48:Middlewares/Third_Party/FatFs/src/ff_gen_drv.c ****     disk.is_initialized[disk.nbr] = 0;
  43              		.loc 1 48 0
  44 0008 0E4B     		ldr	r3, .L8
  45 000a 5D7A     		ldrb	r5, [r3, #9]	@ zero_extendqisi2
  46 000c EDB2     		uxtb	r5, r5
  47 000e 0024     		movs	r4, #0
  48 0010 5C55     		strb	r4, [r3, r5]
  49:Middlewares/Third_Party/FatFs/src/ff_gen_drv.c ****     disk.drv[disk.nbr] = drv;
  49              		.loc 1 49 0
  50 0012 5D7A     		ldrb	r5, [r3, #9]	@ zero_extendqisi2
  51 0014 03EB8505 		add	r5, r3, r5, lsl #2
  52 0018 6860     		str	r0, [r5, #4]
  50:Middlewares/Third_Party/FatFs/src/ff_gen_drv.c ****     disk.lun[disk.nbr] = lun;
  53              		.loc 1 50 0
  54 001a 587A     		ldrb	r0, [r3, #9]	@ zero_extendqisi2
  55              	.LVL1:
  56 001c 1844     		add	r0, r0, r3
  57 001e 0272     		strb	r2, [r0, #8]
  51:Middlewares/Third_Party/FatFs/src/ff_gen_drv.c ****     DiskNum = disk.nbr++;
  58              		.loc 1 51 0
  59 0020 5A7A     		ldrb	r2, [r3, #9]	@ zero_extendqisi2
  60              	.LVL2:
  61 0022 D2B2     		uxtb	r2, r2
  62 0024 501C     		adds	r0, r2, #1
  63              	.LVL3:
ARM GAS  /tmp/ccSeWx2r.s 			page 3


  64 0026 C0B2     		uxtb	r0, r0
  65 0028 5872     		strb	r0, [r3, #9]
  66              	.LVL4:
  52:Middlewares/Third_Party/FatFs/src/ff_gen_drv.c ****     path[0] = DiskNum + '0';
  67              		.loc 1 52 0
  68 002a 3032     		adds	r2, r2, #48
  69              	.LVL5:
  70 002c 0A70     		strb	r2, [r1]
  71              	.LVL6:
  53:Middlewares/Third_Party/FatFs/src/ff_gen_drv.c ****     path[1] = ':';
  72              		.loc 1 53 0
  73 002e 3A23     		movs	r3, #58
  74 0030 4B70     		strb	r3, [r1, #1]
  54:Middlewares/Third_Party/FatFs/src/ff_gen_drv.c ****     path[2] = '/';
  75              		.loc 1 54 0
  76 0032 2F23     		movs	r3, #47
  77 0034 8B70     		strb	r3, [r1, #2]
  55:Middlewares/Third_Party/FatFs/src/ff_gen_drv.c ****     path[3] = 0;
  78              		.loc 1 55 0
  79 0036 CC70     		strb	r4, [r1, #3]
  80              	.LVL7:
  56:Middlewares/Third_Party/FatFs/src/ff_gen_drv.c ****     ret = 0;
  81              		.loc 1 56 0
  82 0038 2046     		mov	r0, r4
  83              	.LVL8:
  57:Middlewares/Third_Party/FatFs/src/ff_gen_drv.c ****   }
  58:Middlewares/Third_Party/FatFs/src/ff_gen_drv.c **** 
  59:Middlewares/Third_Party/FatFs/src/ff_gen_drv.c ****   return ret;
  60:Middlewares/Third_Party/FatFs/src/ff_gen_drv.c **** }
  84              		.loc 1 60 0
  85 003a 30BC     		pop	{r4, r5}
  86              	.LCFI1:
  87              		.cfi_restore 5
  88              		.cfi_restore 4
  89              		.cfi_def_cfa_offset 0
  90 003c 7047     		bx	lr
  91              	.LVL9:
  92              	.L3:
  43:Middlewares/Third_Party/FatFs/src/ff_gen_drv.c ****   uint8_t DiskNum = 0;
  93              		.loc 1 43 0
  94 003e 0120     		movs	r0, #1
  95              	.LVL10:
  96 0040 7047     		bx	lr
  97              	.L9:
  98 0042 00BF     		.align	2
  99              	.L8:
 100 0044 00000000 		.word	.LANCHOR0
 101              		.cfi_endproc
 102              	.LFE141:
 104              		.section	.text.FATFS_LinkDriver,"ax",%progbits
 105              		.align	1
 106              		.global	FATFS_LinkDriver
 107              		.syntax unified
 108              		.thumb
 109              		.thumb_func
 110              		.fpu fpv5-d16
 112              	FATFS_LinkDriver:
ARM GAS  /tmp/ccSeWx2r.s 			page 4


 113              	.LFB142:
  61:Middlewares/Third_Party/FatFs/src/ff_gen_drv.c **** 
  62:Middlewares/Third_Party/FatFs/src/ff_gen_drv.c **** /**
  63:Middlewares/Third_Party/FatFs/src/ff_gen_drv.c ****   * @brief  Links a compatible diskio driver and increments the number of active
  64:Middlewares/Third_Party/FatFs/src/ff_gen_drv.c ****   *         linked drivers.
  65:Middlewares/Third_Party/FatFs/src/ff_gen_drv.c ****   * @note   The number of linked drivers (volumes) is up to 10 due to FatFs limits
  66:Middlewares/Third_Party/FatFs/src/ff_gen_drv.c ****   * @param  drv: pointer to the disk IO Driver structure
  67:Middlewares/Third_Party/FatFs/src/ff_gen_drv.c ****   * @param  path: pointer to the logical drive path
  68:Middlewares/Third_Party/FatFs/src/ff_gen_drv.c ****   * @retval Returns 0 in case of success, otherwise 1.
  69:Middlewares/Third_Party/FatFs/src/ff_gen_drv.c ****   */
  70:Middlewares/Third_Party/FatFs/src/ff_gen_drv.c **** uint8_t FATFS_LinkDriver(const Diskio_drvTypeDef *drv, char *path)
  71:Middlewares/Third_Party/FatFs/src/ff_gen_drv.c **** {
 114              		.loc 1 71 0
 115              		.cfi_startproc
 116              		@ args = 0, pretend = 0, frame = 0
 117              		@ frame_needed = 0, uses_anonymous_args = 0
 118              	.LVL11:
 119 0000 08B5     		push	{r3, lr}
 120              	.LCFI2:
 121              		.cfi_def_cfa_offset 8
 122              		.cfi_offset 3, -8
 123              		.cfi_offset 14, -4
  72:Middlewares/Third_Party/FatFs/src/ff_gen_drv.c ****   return FATFS_LinkDriverEx(drv, path, 0);
 124              		.loc 1 72 0
 125 0002 0022     		movs	r2, #0
 126 0004 FFF7FEFF 		bl	FATFS_LinkDriverEx
 127              	.LVL12:
  73:Middlewares/Third_Party/FatFs/src/ff_gen_drv.c **** }
 128              		.loc 1 73 0
 129 0008 08BD     		pop	{r3, pc}
 130              		.cfi_endproc
 131              	.LFE142:
 133              		.section	.text.FATFS_UnLinkDriverEx,"ax",%progbits
 134              		.align	1
 135              		.global	FATFS_UnLinkDriverEx
 136              		.syntax unified
 137              		.thumb
 138              		.thumb_func
 139              		.fpu fpv5-d16
 141              	FATFS_UnLinkDriverEx:
 142              	.LFB143:
  74:Middlewares/Third_Party/FatFs/src/ff_gen_drv.c **** 
  75:Middlewares/Third_Party/FatFs/src/ff_gen_drv.c **** /**
  76:Middlewares/Third_Party/FatFs/src/ff_gen_drv.c ****   * @brief  Unlinks a diskio driver and decrements the number of active linked
  77:Middlewares/Third_Party/FatFs/src/ff_gen_drv.c ****   *         drivers.
  78:Middlewares/Third_Party/FatFs/src/ff_gen_drv.c ****   * @param  path: pointer to the logical drive path
  79:Middlewares/Third_Party/FatFs/src/ff_gen_drv.c ****   * @param  lun : not used
  80:Middlewares/Third_Party/FatFs/src/ff_gen_drv.c ****   * @retval Returns 0 in case of success, otherwise 1.
  81:Middlewares/Third_Party/FatFs/src/ff_gen_drv.c ****   */
  82:Middlewares/Third_Party/FatFs/src/ff_gen_drv.c **** uint8_t FATFS_UnLinkDriverEx(char *path, uint8_t lun)
  83:Middlewares/Third_Party/FatFs/src/ff_gen_drv.c **** {
 143              		.loc 1 83 0
 144              		.cfi_startproc
 145              		@ args = 0, pretend = 0, frame = 0
 146              		@ frame_needed = 0, uses_anonymous_args = 0
 147              		@ link register save eliminated.
 148              	.LVL13:
ARM GAS  /tmp/ccSeWx2r.s 			page 5


  84:Middlewares/Third_Party/FatFs/src/ff_gen_drv.c ****   uint8_t DiskNum = 0;
  85:Middlewares/Third_Party/FatFs/src/ff_gen_drv.c ****   uint8_t ret = 1;
  86:Middlewares/Third_Party/FatFs/src/ff_gen_drv.c **** 
  87:Middlewares/Third_Party/FatFs/src/ff_gen_drv.c ****   if(disk.nbr >= 1)
 149              		.loc 1 87 0
 150 0000 0D4B     		ldr	r3, .L16
 151 0002 5B7A     		ldrb	r3, [r3, #9]	@ zero_extendqisi2
 152 0004 9BB1     		cbz	r3, .L14
  88:Middlewares/Third_Party/FatFs/src/ff_gen_drv.c ****   {
  89:Middlewares/Third_Party/FatFs/src/ff_gen_drv.c ****     DiskNum = path[0] - '0';
 153              		.loc 1 89 0
 154 0006 0378     		ldrb	r3, [r0]	@ zero_extendqisi2
 155 0008 303B     		subs	r3, r3, #48
 156 000a DBB2     		uxtb	r3, r3
 157              	.LVL14:
  90:Middlewares/Third_Party/FatFs/src/ff_gen_drv.c ****     if(disk.drv[DiskNum] != 0)
 158              		.loc 1 90 0
 159 000c 0A4A     		ldr	r2, .L16
 160 000e 02EB8302 		add	r2, r2, r3, lsl #2
 161 0012 5268     		ldr	r2, [r2, #4]
 162 0014 6AB1     		cbz	r2, .L15
  91:Middlewares/Third_Party/FatFs/src/ff_gen_drv.c ****     {
  92:Middlewares/Third_Party/FatFs/src/ff_gen_drv.c ****       disk.drv[DiskNum] = 0;
 163              		.loc 1 92 0
 164 0016 084A     		ldr	r2, .L16
 165 0018 02EB8301 		add	r1, r2, r3, lsl #2
 166              	.LVL15:
 167 001c 0020     		movs	r0, #0
 168              	.LVL16:
 169 001e 4860     		str	r0, [r1, #4]
  93:Middlewares/Third_Party/FatFs/src/ff_gen_drv.c ****       disk.lun[DiskNum] = 0;
 170              		.loc 1 93 0
 171 0020 1344     		add	r3, r3, r2
 172 0022 1872     		strb	r0, [r3, #8]
  94:Middlewares/Third_Party/FatFs/src/ff_gen_drv.c ****       disk.nbr--;
 173              		.loc 1 94 0
 174 0024 537A     		ldrb	r3, [r2, #9]	@ zero_extendqisi2
 175 0026 013B     		subs	r3, r3, #1
 176 0028 DBB2     		uxtb	r3, r3
 177 002a 5372     		strb	r3, [r2, #9]
 178              	.LVL17:
 179 002c 7047     		bx	lr
 180              	.LVL18:
 181              	.L14:
  85:Middlewares/Third_Party/FatFs/src/ff_gen_drv.c **** 
 182              		.loc 1 85 0
 183 002e 0120     		movs	r0, #1
 184              	.LVL19:
 185 0030 7047     		bx	lr
 186              	.LVL20:
 187              	.L15:
 188 0032 0120     		movs	r0, #1
 189              	.LVL21:
  95:Middlewares/Third_Party/FatFs/src/ff_gen_drv.c ****       ret = 0;
  96:Middlewares/Third_Party/FatFs/src/ff_gen_drv.c ****     }
  97:Middlewares/Third_Party/FatFs/src/ff_gen_drv.c ****   }
  98:Middlewares/Third_Party/FatFs/src/ff_gen_drv.c **** 
ARM GAS  /tmp/ccSeWx2r.s 			page 6


  99:Middlewares/Third_Party/FatFs/src/ff_gen_drv.c ****   return ret;
 100:Middlewares/Third_Party/FatFs/src/ff_gen_drv.c **** }
 190              		.loc 1 100 0
 191 0034 7047     		bx	lr
 192              	.L17:
 193 0036 00BF     		.align	2
 194              	.L16:
 195 0038 00000000 		.word	.LANCHOR0
 196              		.cfi_endproc
 197              	.LFE143:
 199              		.section	.text.FATFS_UnLinkDriver,"ax",%progbits
 200              		.align	1
 201              		.global	FATFS_UnLinkDriver
 202              		.syntax unified
 203              		.thumb
 204              		.thumb_func
 205              		.fpu fpv5-d16
 207              	FATFS_UnLinkDriver:
 208              	.LFB144:
 101:Middlewares/Third_Party/FatFs/src/ff_gen_drv.c **** 
 102:Middlewares/Third_Party/FatFs/src/ff_gen_drv.c **** /**
 103:Middlewares/Third_Party/FatFs/src/ff_gen_drv.c ****   * @brief  Unlinks a diskio driver and decrements the number of active linked
 104:Middlewares/Third_Party/FatFs/src/ff_gen_drv.c ****   *         drivers.
 105:Middlewares/Third_Party/FatFs/src/ff_gen_drv.c ****   * @param  path: pointer to the logical drive path
 106:Middlewares/Third_Party/FatFs/src/ff_gen_drv.c ****   * @retval Returns 0 in case of success, otherwise 1.
 107:Middlewares/Third_Party/FatFs/src/ff_gen_drv.c ****   */
 108:Middlewares/Third_Party/FatFs/src/ff_gen_drv.c **** uint8_t FATFS_UnLinkDriver(char *path)
 109:Middlewares/Third_Party/FatFs/src/ff_gen_drv.c **** {
 209              		.loc 1 109 0
 210              		.cfi_startproc
 211              		@ args = 0, pretend = 0, frame = 0
 212              		@ frame_needed = 0, uses_anonymous_args = 0
 213              	.LVL22:
 214 0000 08B5     		push	{r3, lr}
 215              	.LCFI3:
 216              		.cfi_def_cfa_offset 8
 217              		.cfi_offset 3, -8
 218              		.cfi_offset 14, -4
 110:Middlewares/Third_Party/FatFs/src/ff_gen_drv.c ****   return FATFS_UnLinkDriverEx(path, 0);
 219              		.loc 1 110 0
 220 0002 0021     		movs	r1, #0
 221 0004 FFF7FEFF 		bl	FATFS_UnLinkDriverEx
 222              	.LVL23:
 111:Middlewares/Third_Party/FatFs/src/ff_gen_drv.c **** }
 223              		.loc 1 111 0
 224 0008 08BD     		pop	{r3, pc}
 225              		.cfi_endproc
 226              	.LFE144:
 228              		.section	.text.FATFS_GetAttachedDriversNbr,"ax",%progbits
 229              		.align	1
 230              		.global	FATFS_GetAttachedDriversNbr
 231              		.syntax unified
 232              		.thumb
 233              		.thumb_func
 234              		.fpu fpv5-d16
 236              	FATFS_GetAttachedDriversNbr:
 237              	.LFB145:
ARM GAS  /tmp/ccSeWx2r.s 			page 7


 112:Middlewares/Third_Party/FatFs/src/ff_gen_drv.c **** 
 113:Middlewares/Third_Party/FatFs/src/ff_gen_drv.c **** /**
 114:Middlewares/Third_Party/FatFs/src/ff_gen_drv.c ****   * @brief  Gets number of linked drivers to the FatFs module.
 115:Middlewares/Third_Party/FatFs/src/ff_gen_drv.c ****   * @param  None
 116:Middlewares/Third_Party/FatFs/src/ff_gen_drv.c ****   * @retval Number of attached drivers.
 117:Middlewares/Third_Party/FatFs/src/ff_gen_drv.c ****   */
 118:Middlewares/Third_Party/FatFs/src/ff_gen_drv.c **** uint8_t FATFS_GetAttachedDriversNbr(void)
 119:Middlewares/Third_Party/FatFs/src/ff_gen_drv.c **** {
 238              		.loc 1 119 0
 239              		.cfi_startproc
 240              		@ args = 0, pretend = 0, frame = 0
 241              		@ frame_needed = 0, uses_anonymous_args = 0
 242              		@ link register save eliminated.
 120:Middlewares/Third_Party/FatFs/src/ff_gen_drv.c ****   return disk.nbr;
 243              		.loc 1 120 0
 244 0000 014B     		ldr	r3, .L21
 245 0002 587A     		ldrb	r0, [r3, #9]	@ zero_extendqisi2
 121:Middlewares/Third_Party/FatFs/src/ff_gen_drv.c **** }
 246              		.loc 1 121 0
 247 0004 7047     		bx	lr
 248              	.L22:
 249 0006 00BF     		.align	2
 250              	.L21:
 251 0008 00000000 		.word	.LANCHOR0
 252              		.cfi_endproc
 253              	.LFE145:
 255              		.global	disk
 256              		.section	.bss.disk,"aw",%nobits
 257              		.align	2
 258              		.set	.LANCHOR0,. + 0
 261              	disk:
 262 0000 00000000 		.space	12
 262      00000000 
 262      00000000 
 263              		.text
 264              	.Letext0:
 265              		.file 2 "Middlewares/Third_Party/FatFs/src/integer.h"
 266              		.file 3 "Middlewares/Third_Party/FatFs/src/diskio.h"
 267              		.file 4 "/usr/include/newlib/machine/_default_types.h"
 268              		.file 5 "/usr/include/newlib/sys/_stdint.h"
 269              		.file 6 "Drivers/CMSIS/Include/core_cm7.h"
 270              		.file 7 "Drivers/CMSIS/Device/ST/STM32F7xx/Include/system_stm32f7xx.h"
 271              		.file 8 "Drivers/STM32F7xx_HAL_Driver/Inc/stm32f7xx_hal.h"
 272              		.file 9 "/usr/include/newlib/sys/lock.h"
 273              		.file 10 "/usr/include/newlib/sys/_types.h"
 274              		.file 11 "/usr/lib/gcc/arm-none-eabi/6.3.1/include/stddef.h"
 275              		.file 12 "/usr/include/newlib/sys/reent.h"
 276              		.file 13 "/usr/include/newlib/stdlib.h"
 277              		.file 14 "Middlewares/Third_Party/FatFs/src/ff_gen_drv.h"
ARM GAS  /tmp/ccSeWx2r.s 			page 8

