ARM GAS  /tmp/ccLv14hQ.s 			page 1


   1              		.cpu cortex-m7
   2              		.eabi_attribute 28, 1
   3              		.eabi_attribute 20, 1
   4              		.eabi_attribute 21, 1
   5              		.eabi_attribute 23, 3
   6              		.eabi_attribute 24, 1
   7              		.eabi_attribute 25, 1
   8              		.eabi_attribute 26, 1
   9              		.eabi_attribute 30, 1
  10              		.eabi_attribute 34, 1
  11              		.eabi_attribute 18, 4
  12              		.file	"gps.c"
  13              		.text
  14              	.Ltext0:
  15              		.cfi_sections	.debug_frame
  16              		.section	.rodata.checksum.str1.4,"aMS",%progbits,1
  17              		.align	2
  18              	.LC0:
  19 0000 257800   		.ascii	"%x\000"
  20              		.section	.text.checksum,"ax",%progbits
  21              		.align	1
  22              		.arch armv7e-m
  23              		.syntax unified
  24              		.thumb
  25              		.thumb_func
  26              		.fpu fpv5-d16
  28              	checksum:
  29              	.LVL0:
  30              	.LFB146:
  31              		.file 1 "Src/gps.c"
   1:Src/gps.c     **** #include "gps.h"
   2:Src/gps.c     **** 
   3:Src/gps.c     **** static int checksum(char *string_checksum, int size_string_checksum);
   4:Src/gps.c     **** int start_string_gps = 0;
   5:Src/gps.c     **** char string_gps[100];
   6:Src/gps.c     **** int cont_string, cont_comma;
   7:Src/gps.c     **** char data_string_gps;
   8:Src/gps.c     **** extern char buffer_gps[50];
   9:Src/gps.c     **** extern int msg_arrived;
  10:Src/gps.c     **** extern gps_struct gps;
  11:Src/gps.c     **** extern char msg_gps[3];
  12:Src/gps.c     **** extern UART_HandleTypeDef huart3;
  13:Src/gps.c     **** extern UART_HandleTypeDef huart2;
  14:Src/gps.c     **** 
  15:Src/gps.c     **** 
  16:Src/gps.c     **** int gps_init(UART_HandleTypeDef *huart, gps_struct *gps)
  17:Src/gps.c     **** { //initialization of GPS
  18:Src/gps.c     **** 
  19:Src/gps.c     **** 	//if return--> 0=error,1=ok
  20:Src/gps.c     **** 	huart2.Init.BaudRate = 9600;
  21:Src/gps.c     ****     huart2.Init.WordLength = UART_WORDLENGTH_8B;
  22:Src/gps.c     ****     huart2.Init.StopBits = UART_STOPBITS_1;
  23:Src/gps.c     ****     huart2.Init.Parity = UART_PARITY_NONE;
  24:Src/gps.c     ****     huart2.Init.Mode = UART_MODE_TX_RX;
  25:Src/gps.c     ****     huart2.Init.HwFlowCtl = UART_HWCONTROL_NONE;
  26:Src/gps.c     ****     huart2.Init.OverSampling = UART_OVERSAMPLING_16;
  27:Src/gps.c     ****     huart2.Init.OneBitSampling = UART_ONE_BIT_SAMPLE_DISABLE;
ARM GAS  /tmp/ccLv14hQ.s 			page 2


  28:Src/gps.c     ****     huart2.AdvancedInit.AdvFeatureInit = UART_ADVFEATURE_NO_INIT;
  29:Src/gps.c     ****     if (HAL_UART_DeInit(&huart2) != HAL_OK)
  30:Src/gps.c     ****     {
  31:Src/gps.c     ****         HAL_UART_Transmit(&huart3,(uint8_t*)"ERRORE 3\r\n",6,10);
  32:Src/gps.c     ****     }
  33:Src/gps.c     **** 	if (HAL_UART_Init(&huart2) != HAL_OK)
  34:Src/gps.c     ****     {
  35:Src/gps.c     ****         HAL_UART_Transmit(&huart3,(uint8_t*)"ERRORE 4\r\n",6,10);
  36:Src/gps.c     ****     }
  37:Src/gps.c     **** 	HAL_UART_Transmit(&huart2, (uint8_t *)PMTK_SET_BAUD_115200, strlen(PMTK_SET_BAUD_115200), 200);
  38:Src/gps.c     **** 	HAL_Delay(500);
  39:Src/gps.c     **** 	/*huart->Init.BaudRate = 57600;
  40:Src/gps.c     ****     HAL_UART_DeInit(huart);
  41:Src/gps.c     **** 	HAL_UART_Init(huart);
  42:Src/gps.c     **** 	HAL_UART_Transmit(huart, (uint8_t *)PMTK_SET_BAUD_115200, strlen(PMTK_SET_BAUD_115200), 200);
  43:Src/gps.c     **** 	HAL_Delay(500);*/
  44:Src/gps.c     **** 	huart2.Init.BaudRate = 115200;
  45:Src/gps.c     ****     if (HAL_UART_DeInit(&huart2) != HAL_OK)
  46:Src/gps.c     ****     {
  47:Src/gps.c     ****         HAL_UART_Transmit(&huart3,(uint8_t*)"ERRORE 5\r\n",6,10);
  48:Src/gps.c     ****     }
  49:Src/gps.c     ****     huart2.Init.BaudRate = 115200;
  50:Src/gps.c     ****     huart2.Init.WordLength = UART_WORDLENGTH_8B;
  51:Src/gps.c     ****     huart2.Init.StopBits = UART_STOPBITS_1;
  52:Src/gps.c     ****     huart2.Init.Parity = UART_PARITY_NONE;
  53:Src/gps.c     ****     huart2.Init.Mode = UART_MODE_TX_RX;
  54:Src/gps.c     ****     huart2.Init.HwFlowCtl = UART_HWCONTROL_NONE;
  55:Src/gps.c     ****     huart2.Init.OverSampling = UART_OVERSAMPLING_16;
  56:Src/gps.c     ****     huart2.Init.OneBitSampling = UART_ONE_BIT_SAMPLE_DISABLE;
  57:Src/gps.c     ****     huart2.AdvancedInit.AdvFeatureInit = UART_ADVFEATURE_NO_INIT;
  58:Src/gps.c     **** 	if (HAL_UART_Init(&huart2) != HAL_OK)
  59:Src/gps.c     ****     {
  60:Src/gps.c     ****         HAL_UART_Transmit(&huart3,(uint8_t*)"ERRORE 6\r\n",6,10);
  61:Src/gps.c     ****     }
  62:Src/gps.c     **** 	HAL_UART_Transmit(&huart2, (uint8_t *)PMTK_SET_BAUD_115200, strlen(PMTK_SET_BAUD_115200), 200);
  63:Src/gps.c     **** 	HAL_Delay(500);
  64:Src/gps.c     **** 	HAL_UART_Transmit(&huart2, (uint8_t *)PMTK_SET_NMEA_UPDATE_10HZ, strlen(PMTK_SET_NMEA_UPDATE_10HZ)
  65:Src/gps.c     **** 	HAL_Delay(500);
  66:Src/gps.c     **** 	HAL_UART_Transmit(&huart2, (uint8_t *)PMTK_SET_NMEA_OUTPUT_GGAVTG, strlen(PMTK_SET_NMEA_OUTPUT_GGA
  67:Src/gps.c     **** 	HAL_Delay(500);
  68:Src/gps.c     **** 	strcpy(gps->speed, "000.00");
  69:Src/gps.c     **** 	strcpy(gps->latitude, "0000.0000");
  70:Src/gps.c     **** 	strcpy(gps->latitude_o, "N");
  71:Src/gps.c     **** 	strcpy(gps->longitude, "00000.0000");
  72:Src/gps.c     **** 	strcpy(gps->longitude_o, "W");
  73:Src/gps.c     **** 	strcpy(gps->altitude, "0000.0");
  74:Src/gps.c     **** 	strcpy(gps->hour, "00");
  75:Src/gps.c     ****     strcpy(gps->min, "00");
  76:Src/gps.c     ****     strcpy(gps->sec, "00");
  77:Src/gps.c     **** 	//HAL_UART_Receive_IT(huart, (uint8_t *)msg_gps, 1); //request of rx buffer interrupt
  78:Src/gps.c     **** 
  79:Src/gps.c     **** 	return 1;
  80:Src/gps.c     **** }
  81:Src/gps.c     **** 
  82:Src/gps.c     **** int gps_read(UART_HandleTypeDef *huart, gps_struct *gps)
  83:Src/gps.c     **** {
  84:Src/gps.c     **** 
ARM GAS  /tmp/ccLv14hQ.s 			page 3


  85:Src/gps.c     **** 	int ret = 0; //return--> 0=error,1=ok
  86:Src/gps.c     **** 
  87:Src/gps.c     **** 	/*
  88:Src/gps.c     **** 			* Example of strings
  89:Src/gps.c     **** 			* $GPGGA,064951.000,2307.1256,N,12016.4438,E,1,8,0.95,39.9,M,17.8,M,,*65
  90:Src/gps.c     **** 			* $GPGSA,A,3,29,21,26,15,18,09,06,10,,,,,2.32,0.95,2.11*00
  91:Src/gps.c     **** 			* $GPGSV,3,1,09,29,36,029,42,21,46,314,43,26,44,020,43,15,21,321,39*7D
  92:Src/gps.c     **** 			  $GPGSV,3,2,09,18,26,314,40,09,57,170,44,06,20,229,37,10,26,084,37*77
  93:Src/gps.c     **** 			  $GPGSV,3,3,09,07,,,26*73
  94:Src/gps.c     **** 			* $GPRMC,064951.000,A,2307.1256,N,12016.4438,E,0.03,165.48,260406,3.05,W,A*2C
  95:Src/gps.c     **** 			* $GPVTG,165.48,T,,M,0.03,N,0.06,K,A*37
  96:Src/gps.c     **** 			* $PGTOP,11,3 *6F
  97:Src/gps.c     **** 			*
  98:Src/gps.c     **** 			*
  99:Src/gps.c     **** 			*
 100:Src/gps.c     **** 			* 	$GPBOD - Bearing, origin to destination
 101:Src/gps.c     **** 				$GPBWC - Bearing and distance to waypoint, great circle
 102:Src/gps.c     **** 				$GPGGA - Global Positioning System Fix Data
 103:Src/gps.c     **** 				$GPGLL - Geographic position, latitude / longitude
 104:Src/gps.c     **** 				$GPGSA - GPS DOP and active satellites
 105:Src/gps.c     **** 				$GPGSV - GPS Satellites in view
 106:Src/gps.c     **** 				$GPHDT - Heading, True
 107:Src/gps.c     **** 				$GPR00 - List of waypoints in currently active route
 108:Src/gps.c     **** 				$GPRMA - Recommended minimum specific Loran-C data
 109:Src/gps.c     **** 				$GPRMB - Recommended minimum navigation info
 110:Src/gps.c     **** 				$GPRMC - Recommended minimum specific GPS/Transit data
 111:Src/gps.c     **** 				$GPRTE - Routes
 112:Src/gps.c     **** 				$GPTRF - Transit Fix Data
 113:Src/gps.c     **** 				$GPSTN - Multiple Data ID
 114:Src/gps.c     **** 				$GPVBW - Dual Ground / Water Speed
 115:Src/gps.c     **** 				$GPVTG - Track made good and ground speed
 116:Src/gps.c     **** 				$GPWPL - Waypoint location
 117:Src/gps.c     **** 				$GPXTE - Cross-track error, Measured
 118:Src/gps.c     **** 				$GPZDA - Date & Time
 119:Src/gps.c     **** 				http://aprs.gids.nl/nmea/
 120:Src/gps.c     **** 			*/
 121:Src/gps.c     ****     //check if it's the huart_gps interrupt
 122:Src/gps.c     ****     int msg_arrived_s = msg_arrived;
 123:Src/gps.c     ****     msg_arrived = 0;
 124:Src/gps.c     ****     char buffer_gps_s[50]; 
 125:Src/gps.c     ****     memcpy(buffer_gps_s, buffer_gps, 50);
 126:Src/gps.c     ****     if(msg_arrived_s > 0){
 127:Src/gps.c     ****         for(int i = 0; i < msg_arrived_s; i++){
 128:Src/gps.c     ****             data_string_gps = buffer_gps_s[i];
 129:Src/gps.c     ****             if ((start_string_gps == 1) && (data_string_gps != '$'))
 130:Src/gps.c     ****             {											   //check that the new string has not started yet
 131:Src/gps.c     ****                 string_gps[cont_string] = data_string_gps; //save the data into the array
 132:Src/gps.c     ****                 cont_string++;
 133:Src/gps.c     ****                 if (string_gps[cont_string - 1] == '\r' || string_gps[cont_string - 1] == '\n')
 134:Src/gps.c     ****                 { //indicates that the string is finishing
 135:Src/gps.c     ****                     cont_string--;
 136:Src/gps.c     ****                     string_gps[cont_string] = '\0'; // '\0'=end of the string
 137:Src/gps.c     ****                     start_string_gps = 0;			//end of string
 138:Src/gps.c     ****                     if (string_gps[2] == 'G' && string_gps[3] == 'G' && string_gps[4] == 'A')
 139:Src/gps.c     ****                     { // operation when the string is GPGGA //
 140:Src/gps.c     ****                         //memcpy(gps->string, "", 100);
 141:Src/gps.c     ****                         //memcpy(gps->string, string_gps, strlen(string_gps));
ARM GAS  /tmp/ccLv14hQ.s 			page 4


 142:Src/gps.c     **** 
 143:Src/gps.c     ****                         if (checksum(string_gps, cont_string) == 1)
 144:Src/gps.c     ****                         { //check the checksum (if==true -> enter)
 145:Src/gps.c     ****                             int cont_comma = 0, cont_latitude = 0, cont_longitude = 0, cont_altitud
 146:Src/gps.c     ****                             for (int i = 5; i < 100; i++)
 147:Src/gps.c     ****                             {
 148:Src/gps.c     ****                                 if (string_gps[i] == ',')
 149:Src/gps.c     ****                                     cont_comma++;
 150:Src/gps.c     ****                                 else
 151:Src/gps.c     ****                                 {
 152:Src/gps.c     ****                                     if (cont_comma == 1)
 153:Src/gps.c     ****                                     { //save the time
 154:Src/gps.c     ****                                         if(cont_time < 2){
 155:Src/gps.c     ****                                             gps->hour[cont_time] = string_gps[i];
 156:Src/gps.c     ****                                             cont_time++;
 157:Src/gps.c     ****                                         }else if(cont_time < 4){
 158:Src/gps.c     ****                                             gps->min[cont_time % 2] = string_gps[i];
 159:Src/gps.c     ****                                             cont_time++;
 160:Src/gps.c     ****                                         }else if(cont_time <6){
 161:Src/gps.c     ****                                             gps->sec[cont_time % 2] = string_gps[i];
 162:Src/gps.c     ****                                             cont_time++;
 163:Src/gps.c     ****                                         }
 164:Src/gps.c     ****                                         
 165:Src/gps.c     ****                                     }
 166:Src/gps.c     ****                                     else if (cont_comma == 2)
 167:Src/gps.c     ****                                     { //save latitude
 168:Src/gps.c     **** 
 169:Src/gps.c     ****                                         gps->latitude[cont_latitude] = string_gps[i];
 170:Src/gps.c     ****                                         cont_latitude++;
 171:Src/gps.c     ****                                     }
 172:Src/gps.c     ****                                     else if (cont_comma == 3)
 173:Src/gps.c     ****                                     { //save orientation of latitude
 174:Src/gps.c     ****                                         gps->latitude_o[0] = string_gps[i];
 175:Src/gps.c     ****                                     }
 176:Src/gps.c     ****                                     else if (cont_comma == 4)
 177:Src/gps.c     ****                                     { //save longitude
 178:Src/gps.c     ****                                         gps->longitude[cont_longitude] = string_gps[i];
 179:Src/gps.c     ****                                         cont_longitude++;
 180:Src/gps.c     ****                                     }
 181:Src/gps.c     ****                                     else if (cont_comma == 5)
 182:Src/gps.c     ****                                     { //save orientation of longitude
 183:Src/gps.c     ****                                         gps->longitude_o[0] = string_gps[i];
 184:Src/gps.c     ****                                     }
 185:Src/gps.c     ****                                     else if (cont_comma == 6)
 186:Src/gps.c     ****                                     {
 187:Src/gps.c     ****                                         gps->fix_status = string_gps[i];
 188:Src/gps.c     ****                                     }
 189:Src/gps.c     ****                                     else if (cont_comma == 9)
 190:Src/gps.c     ****                                     { //save altitude
 191:Src/gps.c     ****                                         gps->altitude[cont_altitude] = string_gps[i];
 192:Src/gps.c     ****                                         cont_altitude++;
 193:Src/gps.c     ****                                     }
 194:Src/gps.c     ****                                     else if (cont_comma == 10)
 195:Src/gps.c     ****                                     {
 196:Src/gps.c     ****                                         i = 100; //end the cicle
 197:Src/gps.c     ****                                     }
 198:Src/gps.c     ****                                 }
ARM GAS  /tmp/ccLv14hQ.s 			page 5


 199:Src/gps.c     ****                             }
 200:Src/gps.c     **** 
 201:Src/gps.c     ****                             //-- operation to split data and send them --//
 202:Src/gps.c     ****                             if (gps->fix_status == '0')
 203:Src/gps.c     ****                             {
 204:Src/gps.c     ****                                 char txt[100];
 205:Src/gps.c     ****                                 sprintf(txt,"NO CONNECTION\r\n");
 206:Src/gps.c     ****                                 HAL_UART_Transmit(&huart3,(uint8_t*)txt,strlen(txt),10);
 207:Src/gps.c     ****                                 gps->latitude_i_h = 0;
 208:Src/gps.c     ****                                 gps->latitude_i_l = 0;
 209:Src/gps.c     ****                                 gps->longitude_i_h = 0;
 210:Src/gps.c     ****                                 gps->longitude_i_l = 0;
 211:Src/gps.c     ****                                 gps->altitude_i = 0;
 212:Src/gps.c     ****                             }
 213:Src/gps.c     ****                             else
 214:Src/gps.c     ****                             {
 215:Src/gps.c     ****                                 char txt[100];
 216:Src/gps.c     ****                                 gps->latitude_i = (long int)(atof(gps->latitude) * 100);
 217:Src/gps.c     ****                                 sprintf(txt,"latitude %ld %c", gps->latitude_i, gps->latitude_o[0])
 218:Src/gps.c     ****                                 HAL_UART_Transmit(&huart3,(uint8_t*)txt,strlen(txt),10);
 219:Src/gps.c     ****                                 gps->longitude_i = (long int)(atof(gps->longitude) * 100);
 220:Src/gps.c     ****                                 sprintf(txt,"longitude %ld %c",gps->longitude_i, gps->longitude_o[0
 221:Src/gps.c     ****                                 HAL_UART_Transmit(&huart3,(uint8_t*)txt,strlen(txt),10);
 222:Src/gps.c     ****                                 sprintf(txt,"time %c%c:%c%c:%c%c", gps->hour[0], gps->hour[1], gps-
 223:Src/gps.c     ****                                 HAL_UART_Transmit(&huart3,(uint8_t*)txt,strlen(txt),10);
 224:Src/gps.c     ****                                 gps->altitude_i = (int)(atof(gps->altitude) * 10);
 225:Src/gps.c     ****                                 gps->latitude_i_h = (int)(gps->latitude_i >> 16);
 226:Src/gps.c     ****                                 gps->latitude_i_l = (int)(gps->latitude_i - (gps->latitude_i_h << 1
 227:Src/gps.c     ****                                 gps->longitude_i_h = (int)(gps->longitude_i >> 16);
 228:Src/gps.c     ****                                 gps->longitude_i_l = (int)(gps->longitude_i - (gps->longitude_i_h <
 229:Src/gps.c     ****                             }
 230:Src/gps.c     ****                             ret = 1;
 231:Src/gps.c     ****                         }
 232:Src/gps.c     ****                         else
 233:Src/gps.c     ****                         {
 234:Src/gps.c     ****                             char txt[100];
 235:Src/gps.c     ****                             sprintf(txt,"CHECKSUM FAIL\r\n");
 236:Src/gps.c     ****                             HAL_UART_Transmit(&huart3,(uint8_t*)txt,strlen(txt),10);
 237:Src/gps.c     ****                             ret = 0; //checksum failed
 238:Src/gps.c     ****                         }
 239:Src/gps.c     ****                     }
 240:Src/gps.c     ****                     else if (string_gps[2] == 'V' && string_gps[3] == 'T' && string_gps[4] == 'G')
 241:Src/gps.c     ****                     { // operation when the string is GPVTG //
 242:Src/gps.c     ****                         if (checksum(string_gps, cont_string) == 1)
 243:Src/gps.c     ****                         { //check the checksum (if==true -> enter)
 244:Src/gps.c     ****                             cont_comma = 0;
 245:Src/gps.c     ****                             int cont_speed = 0;
 246:Src/gps.c     ****                             for (int i = 5; i < cont_string; i++)
 247:Src/gps.c     ****                             {
 248:Src/gps.c     ****                                 if (string_gps[i] == ',')
 249:Src/gps.c     ****                                     cont_comma++;
 250:Src/gps.c     ****                                 else
 251:Src/gps.c     ****                                 {
 252:Src/gps.c     ****                                     if (cont_comma == 7)
 253:Src/gps.c     ****                                     { //save the speed
 254:Src/gps.c     ****                                         gps->speed[cont_speed] = string_gps[i];
 255:Src/gps.c     ****                                         cont_speed++;
ARM GAS  /tmp/ccLv14hQ.s 			page 6


 256:Src/gps.c     ****                                     }
 257:Src/gps.c     ****                                     else if (cont_comma == 8)
 258:Src/gps.c     ****                                     {
 259:Src/gps.c     ****                                         i = cont_string;
 260:Src/gps.c     ****                                     }
 261:Src/gps.c     ****                                 }
 262:Src/gps.c     ****                             }
 263:Src/gps.c     ****                             //-- operation to split data and send them --//
 264:Src/gps.c     ****                             if (gps->fix_status == '0')
 265:Src/gps.c     ****                             {
 266:Src/gps.c     ****                                 char txt[100];
 267:Src/gps.c     ****                                 sprintf(txt,"NO CONNECTION\r\n");
 268:Src/gps.c     ****                                 HAL_UART_Transmit(&huart3,(uint8_t*)txt,strlen(txt),10);
 269:Src/gps.c     ****                                 gps->speed_i = 0;
 270:Src/gps.c     ****                             }
 271:Src/gps.c     ****                             else
 272:Src/gps.c     ****                             {
 273:Src/gps.c     ****                                 char txt[100];
 274:Src/gps.c     ****                                 gps->speed_i = (int)(atof(gps->speed) * 100);
 275:Src/gps.c     ****                                 sprintf(txt,"longitude %d",gps->speed_i);
 276:Src/gps.c     ****                                 HAL_UART_Transmit(&huart3,(uint8_t*)txt,strlen(txt),10);
 277:Src/gps.c     ****                             }
 278:Src/gps.c     **** 
 279:Src/gps.c     ****                             ret = 1;
 280:Src/gps.c     ****                         }
 281:Src/gps.c     ****                         else
 282:Src/gps.c     ****                         {
 283:Src/gps.c     ****                             char txt[100];
 284:Src/gps.c     ****                             sprintf(txt,"CHECKSUM FAIL\r\n");
 285:Src/gps.c     ****                             HAL_UART_Transmit(&huart3,(uint8_t*)txt,strlen(txt),10);
 286:Src/gps.c     ****                             ret = 0; //checksum failed
 287:Src/gps.c     ****                         }
 288:Src/gps.c     ****                     }
 289:Src/gps.c     ****                     strcpy(string_gps, "");
 290:Src/gps.c     ****                 }
 291:Src/gps.c     ****             }
 292:Src/gps.c     ****             else
 293:Src/gps.c     ****             {
 294:Src/gps.c     ****                 if (data_string_gps == '$')
 295:Src/gps.c     ****                 {						  //check if data indicates the start of new string
 296:Src/gps.c     ****                     start_string_gps = 1; //new string started
 297:Src/gps.c     ****                     cont_string = 0;	  //set the counter to 1
 298:Src/gps.c     ****                 }
 299:Src/gps.c     ****             }
 300:Src/gps.c     ****         }
 301:Src/gps.c     ****         data_string_gps = buffer_gps[0];						  //convert a pointer into a char
 302:Src/gps.c     ****     }
 303:Src/gps.c     **** 	return ret;
 304:Src/gps.c     **** }
 305:Src/gps.c     **** static int checksum(char *string_checksum, int size_string_checksum)
 306:Src/gps.c     **** { //check the checksum
  32              		.loc 1 306 1 view -0
  33              		.cfi_startproc
  34              		@ args = 0, pretend = 0, frame = 8
  35              		@ frame_needed = 0, uses_anonymous_args = 0
  36              		.loc 1 306 1 is_stmt 0 view .LVU1
  37 0000 70B5     		push	{r4, r5, r6, lr}
ARM GAS  /tmp/ccLv14hQ.s 			page 7


  38              	.LCFI0:
  39              		.cfi_def_cfa_offset 16
  40              		.cfi_offset 4, -16
  41              		.cfi_offset 5, -12
  42              		.cfi_offset 6, -8
  43              		.cfi_offset 14, -4
  44 0002 82B0     		sub	sp, sp, #8
  45              	.LCFI1:
  46              		.cfi_def_cfa_offset 24
 307:Src/gps.c     **** 	//return 1;
 308:Src/gps.c     **** 
 309:Src/gps.c     **** 	int res = 0;
  47              		.loc 1 309 2 is_stmt 1 view .LVU2
  48              	.LVL1:
 310:Src/gps.c     **** 	int offset_maiusc = (int)('A') - (int)('a');
  49              		.loc 1 310 2 view .LVU3
 311:Src/gps.c     **** 	int i = 0;
  50              		.loc 1 311 2 view .LVU4
 312:Src/gps.c     **** 
 313:Src/gps.c     **** 	for (i = 0; (i < size_string_checksum) && (string_checksum[i] != '*'); i++)
  51              		.loc 1 313 2 view .LVU5
  52              		.loc 1 313 9 is_stmt 0 view .LVU6
  53 0004 0023     		movs	r3, #0
 309:Src/gps.c     **** 	int offset_maiusc = (int)('A') - (int)('a');
  54              		.loc 1 309 6 view .LVU7
  55 0006 1C46     		mov	r4, r3
  56              	.LVL2:
  57              	.L2:
  58              		.loc 1 313 14 is_stmt 1 discriminator 1 view .LVU8
  59              		.loc 1 313 2 is_stmt 0 discriminator 1 view .LVU9
  60 0008 8B42     		cmp	r3, r1
  61 000a 05DA     		bge	.L3
  62              		.loc 1 313 60 discriminator 3 view .LVU10
  63 000c C25C     		ldrb	r2, [r0, r3]	@ zero_extendqisi2
  64              		.loc 1 313 41 discriminator 3 view .LVU11
  65 000e 2A2A     		cmp	r2, #42
  66 0010 02D0     		beq	.L3
 314:Src/gps.c     **** 	{
 315:Src/gps.c     **** 		res = res ^ string_checksum[i];
  67              		.loc 1 315 3 is_stmt 1 discriminator 4 view .LVU12
  68              		.loc 1 315 7 is_stmt 0 discriminator 4 view .LVU13
  69 0012 5440     		eors	r4, r4, r2
  70              	.LVL3:
 313:Src/gps.c     **** 	{
  71              		.loc 1 313 73 is_stmt 1 discriminator 4 view .LVU14
 313:Src/gps.c     **** 	{
  72              		.loc 1 313 74 is_stmt 0 discriminator 4 view .LVU15
  73 0014 0133     		adds	r3, r3, #1
  74              	.LVL4:
 313:Src/gps.c     **** 	{
  75              		.loc 1 313 74 discriminator 4 view .LVU16
  76 0016 F7E7     		b	.L2
  77              	.L3:
 316:Src/gps.c     **** 	}
 317:Src/gps.c     **** 	char check[2] = {string_checksum[i + 1], string_checksum[i + 2]};
  78              		.loc 1 317 2 is_stmt 1 view .LVU17
  79              		.loc 1 317 34 is_stmt 0 view .LVU18
ARM GAS  /tmp/ccLv14hQ.s 			page 8


  80 0018 1844     		add	r0, r0, r3
  81              	.LVL5:
  82              		.loc 1 317 34 view .LVU19
  83 001a 4578     		ldrb	r5, [r0, #1]	@ zero_extendqisi2
  84              		.loc 1 317 58 view .LVU20
  85 001c 8678     		ldrb	r6, [r0, #2]	@ zero_extendqisi2
 318:Src/gps.c     **** 	char res_char[3];
  86              		.loc 1 318 2 is_stmt 1 view .LVU21
 319:Src/gps.c     **** 	sprintf(res_char, "%x", res);
  87              		.loc 1 319 2 view .LVU22
  88 001e 2246     		mov	r2, r4
  89 0020 1749     		ldr	r1, .L14
  90              	.LVL6:
  91              		.loc 1 319 2 is_stmt 0 view .LVU23
  92 0022 01A8     		add	r0, sp, #4
  93 0024 FFF7FEFF 		bl	sprintf
  94              	.LVL7:
 320:Src/gps.c     **** 	if (res < 17)
  95              		.loc 1 320 2 is_stmt 1 view .LVU24
  96              		.loc 1 320 5 is_stmt 0 view .LVU25
  97 0028 102C     		cmp	r4, #16
  98 002a 06DC     		bgt	.L5
 321:Src/gps.c     **** 	{
 322:Src/gps.c     **** 		res_char[1] = res_char[0];
  99              		.loc 1 322 3 is_stmt 1 view .LVU26
 100              		.loc 1 322 25 is_stmt 0 view .LVU27
 101 002c 9DF80430 		ldrb	r3, [sp, #4]	@ zero_extendqisi2
 102              		.loc 1 322 15 view .LVU28
 103 0030 8DF80530 		strb	r3, [sp, #5]
 323:Src/gps.c     **** 		res_char[0] = '0';
 104              		.loc 1 323 3 is_stmt 1 view .LVU29
 105              		.loc 1 323 15 is_stmt 0 view .LVU30
 106 0034 3023     		movs	r3, #48
 107 0036 8DF80430 		strb	r3, [sp, #4]
 108              	.L5:
 309:Src/gps.c     **** 	int offset_maiusc = (int)('A') - (int)('a');
 109              		.loc 1 309 6 discriminator 1 view .LVU31
 110 003a 0023     		movs	r3, #0
 111 003c 00E0     		b	.L7
 112              	.LVL8:
 113              	.L6:
 114              	.LBB2:
 324:Src/gps.c     **** 	}
 325:Src/gps.c     **** 	for (int j = 0; j < 2; j++)
 115              		.loc 1 325 25 is_stmt 1 discriminator 2 view .LVU32
 116              		.loc 1 325 26 is_stmt 0 discriminator 2 view .LVU33
 117 003e 0133     		adds	r3, r3, #1
 118              	.LVL9:
 119              	.L7:
 120              		.loc 1 325 18 is_stmt 1 discriminator 1 view .LVU34
 121              		.loc 1 325 2 is_stmt 0 discriminator 1 view .LVU35
 122 0040 012B     		cmp	r3, #1
 123 0042 0EDC     		bgt	.L13
 326:Src/gps.c     **** 	{ //convert to upper case letter
 327:Src/gps.c     **** 		if ((int)res_char[j] >= 'a' && (int)res_char[j] <= 'f')
 124              		.loc 1 327 3 is_stmt 1 view .LVU36
 125              		.loc 1 327 20 is_stmt 0 view .LVU37
ARM GAS  /tmp/ccLv14hQ.s 			page 9


 126 0044 02AA     		add	r2, sp, #8
 127 0046 1A44     		add	r2, r2, r3
 128 0048 12F8041C 		ldrb	r1, [r2, #-4]	@ zero_extendqisi2
 129              		.loc 1 327 31 view .LVU38
 130 004c A1F16102 		sub	r2, r1, #97
 131 0050 D2B2     		uxtb	r2, r2
 132              		.loc 1 327 6 view .LVU39
 133 0052 052A     		cmp	r2, #5
 134 0054 F3D8     		bhi	.L6
 328:Src/gps.c     **** 		{
 329:Src/gps.c     **** 			res_char[j] = (char)((int)res_char[j] + offset_maiusc);
 135              		.loc 1 329 4 is_stmt 1 view .LVU40
 136              		.loc 1 329 18 is_stmt 0 view .LVU41
 137 0056 2039     		subs	r1, r1, #32
 138              		.loc 1 329 16 view .LVU42
 139 0058 02AA     		add	r2, sp, #8
 140 005a 1A44     		add	r2, r2, r3
 141 005c 02F8041C 		strb	r1, [r2, #-4]
 142 0060 EDE7     		b	.L6
 143              	.L13:
 144              	.LBE2:
 330:Src/gps.c     **** 		}
 331:Src/gps.c     **** 	}
 332:Src/gps.c     **** 	if (res_char[0] == check[0] && res_char[1] == check[1])
 145              		.loc 1 332 2 is_stmt 1 view .LVU43
 146              		.loc 1 332 14 is_stmt 0 view .LVU44
 147 0062 9DF80430 		ldrb	r3, [sp, #4]	@ zero_extendqisi2
 148              	.LVL10:
 149              		.loc 1 332 5 view .LVU45
 150 0066 9D42     		cmp	r5, r3
 151 0068 05D1     		bne	.L10
 152              		.loc 1 332 41 discriminator 1 view .LVU46
 153 006a 9DF80530 		ldrb	r3, [sp, #5]	@ zero_extendqisi2
 154              		.loc 1 332 30 discriminator 1 view .LVU47
 155 006e 9E42     		cmp	r6, r3
 156 0070 04D0     		beq	.L11
 333:Src/gps.c     **** 	{
 334:Src/gps.c     **** 		return 1; //checksum is correct
 335:Src/gps.c     **** 	}
 336:Src/gps.c     **** 	else
 337:Src/gps.c     **** 	{
 338:Src/gps.c     **** 		return 0; //checksum failed
 157              		.loc 1 338 10 view .LVU48
 158 0072 0020     		movs	r0, #0
 159 0074 00E0     		b	.L1
 160              	.L10:
 161 0076 0020     		movs	r0, #0
 162              	.L1:
 339:Src/gps.c     **** 	}
 340:Src/gps.c     **** }...
 163              		.loc 1 340 1 view .LVU49
 164 0078 02B0     		add	sp, sp, #8
 165              	.LCFI2:
 166              		.cfi_remember_state
 167              		.cfi_def_cfa_offset 16
 168              		@ sp needed
 169 007a 70BD     		pop	{r4, r5, r6, pc}
ARM GAS  /tmp/ccLv14hQ.s 			page 10


 170              	.LVL11:
 171              	.L11:
 172              	.LCFI3:
 173              		.cfi_restore_state
 334:Src/gps.c     **** 		return 1; //checksum is correct
 174              		.loc 1 334 10 view .LVU50
 175 007c 0120     		movs	r0, #1
 176 007e FBE7     		b	.L1
 177              	.L15:
 178              		.align	2
 179              	.L14:
 180 0080 00000000 		.word	.LC0
 181              		.cfi_endproc
 182              	.LFE146:
 184              		.section	.rodata.gps_init.str1.4,"aMS",%progbits,1
 185              		.align	2
 186              	.LC1:
 187 0000 4552524F 		.ascii	"ERRORE 3\015\012\000"
 187      52452033 
 187      0D0A00
 188 000b 00       		.align	2
 189              	.LC2:
 190 000c 4552524F 		.ascii	"ERRORE 4\015\012\000"
 190      52452034 
 190      0D0A00
 191 0017 00       		.align	2
 192              	.LC3:
 193 0018 24504D54 		.ascii	"$PMTK251,115200*1F\015\012\000"
 193      4B323531 
 193      2C313135 
 193      3230302A 
 193      31460D0A 
 194 002d 000000   		.align	2
 195              	.LC4:
 196 0030 4552524F 		.ascii	"ERRORE 5\015\012\000"
 196      52452035 
 196      0D0A00
 197 003b 00       		.align	2
 198              	.LC5:
 199 003c 4552524F 		.ascii	"ERRORE 6\015\012\000"
 199      52452036 
 199      0D0A00
 200 0047 00       		.align	2
 201              	.LC6:
 202 0048 24504D54 		.ascii	"$PMTK220,100*2F\015\012\000"
 202      4B323230 
 202      2C313030 
 202      2A32460D 
 202      0A00
 203 005a 0000     		.align	2
 204              	.LC7:
 205 005c 24504D54 		.ascii	"$PMTK314,0,0,1,1,0,0,0,0,0,0,0,0,0,0,0,0,0,0,0*28\015"
 205      4B333134 
 205      2C302C30 
 205      2C312C31 
 205      2C302C30 
 206 008e 0A00     		.ascii	"\012\000"
ARM GAS  /tmp/ccLv14hQ.s 			page 11


 207              		.align	2
 208              	.LC8:
 209 0090 3030302E 		.ascii	"000.00\000"
 209      303000
 210 0097 00       		.align	2
 211              	.LC9:
 212 0098 30303030 		.ascii	"0000.0000\000"
 212      2E303030 
 212      3000
 213 00a2 0000     		.align	2
 214              	.LC10:
 215 00a4 4E00     		.ascii	"N\000"
 216 00a6 0000     		.align	2
 217              	.LC11:
 218 00a8 30303030 		.ascii	"00000.0000\000"
 218      302E3030 
 218      303000
 219 00b3 00       		.align	2
 220              	.LC12:
 221 00b4 5700     		.ascii	"W\000"
 222 00b6 0000     		.align	2
 223              	.LC13:
 224 00b8 30303030 		.ascii	"0000.0\000"
 224      2E3000
 225 00bf 00       		.align	2
 226              	.LC14:
 227 00c0 303000   		.ascii	"00\000"
 228              		.section	.text.gps_init,"ax",%progbits
 229              		.align	1
 230              		.global	gps_init
 231              		.syntax unified
 232              		.thumb
 233              		.thumb_func
 234              		.fpu fpv5-d16
 236              	gps_init:
 237              	.LVL12:
 238              	.LFB144:
  17:Src/gps.c     **** { //initialization of GPS
 239              		.loc 1 17 1 is_stmt 1 view -0
 240              		.cfi_startproc
 241              		@ args = 0, pretend = 0, frame = 0
 242              		@ frame_needed = 0, uses_anonymous_args = 0
  17:Src/gps.c     **** { //initialization of GPS
 243              		.loc 1 17 1 is_stmt 0 view .LVU52
 244 0000 38B5     		push	{r3, r4, r5, lr}
 245              	.LCFI4:
 246              		.cfi_def_cfa_offset 16
 247              		.cfi_offset 3, -16
 248              		.cfi_offset 4, -12
 249              		.cfi_offset 5, -8
 250              		.cfi_offset 14, -4
 251 0002 0C46     		mov	r4, r1
  20:Src/gps.c     **** 	huart2.Init.BaudRate = 9600;
 252              		.loc 1 20 2 is_stmt 1 view .LVU53
  20:Src/gps.c     **** 	huart2.Init.BaudRate = 9600;
 253              		.loc 1 20 23 is_stmt 0 view .LVU54
 254 0004 5648     		ldr	r0, .L26
ARM GAS  /tmp/ccLv14hQ.s 			page 12


 255              	.LVL13:
  20:Src/gps.c     **** 	huart2.Init.BaudRate = 9600;
 256              		.loc 1 20 23 view .LVU55
 257 0006 4FF41653 		mov	r3, #9600
 258 000a 4360     		str	r3, [r0, #4]
  21:Src/gps.c     ****     huart2.Init.WordLength = UART_WORDLENGTH_8B;
 259              		.loc 1 21 5 is_stmt 1 view .LVU56
  21:Src/gps.c     ****     huart2.Init.WordLength = UART_WORDLENGTH_8B;
 260              		.loc 1 21 28 is_stmt 0 view .LVU57
 261 000c 0023     		movs	r3, #0
 262 000e 8360     		str	r3, [r0, #8]
  22:Src/gps.c     ****     huart2.Init.StopBits = UART_STOPBITS_1;
 263              		.loc 1 22 5 is_stmt 1 view .LVU58
  22:Src/gps.c     ****     huart2.Init.StopBits = UART_STOPBITS_1;
 264              		.loc 1 22 26 is_stmt 0 view .LVU59
 265 0010 C360     		str	r3, [r0, #12]
  23:Src/gps.c     ****     huart2.Init.Parity = UART_PARITY_NONE;
 266              		.loc 1 23 5 is_stmt 1 view .LVU60
  23:Src/gps.c     ****     huart2.Init.Parity = UART_PARITY_NONE;
 267              		.loc 1 23 24 is_stmt 0 view .LVU61
 268 0012 0361     		str	r3, [r0, #16]
  24:Src/gps.c     ****     huart2.Init.Mode = UART_MODE_TX_RX;
 269              		.loc 1 24 5 is_stmt 1 view .LVU62
  24:Src/gps.c     ****     huart2.Init.Mode = UART_MODE_TX_RX;
 270              		.loc 1 24 22 is_stmt 0 view .LVU63
 271 0014 0C22     		movs	r2, #12
 272 0016 4261     		str	r2, [r0, #20]
  25:Src/gps.c     ****     huart2.Init.HwFlowCtl = UART_HWCONTROL_NONE;
 273              		.loc 1 25 5 is_stmt 1 view .LVU64
  25:Src/gps.c     ****     huart2.Init.HwFlowCtl = UART_HWCONTROL_NONE;
 274              		.loc 1 25 27 is_stmt 0 view .LVU65
 275 0018 8361     		str	r3, [r0, #24]
  26:Src/gps.c     ****     huart2.Init.OverSampling = UART_OVERSAMPLING_16;
 276              		.loc 1 26 5 is_stmt 1 view .LVU66
  26:Src/gps.c     ****     huart2.Init.OverSampling = UART_OVERSAMPLING_16;
 277              		.loc 1 26 30 is_stmt 0 view .LVU67
 278 001a C361     		str	r3, [r0, #28]
  27:Src/gps.c     ****     huart2.Init.OneBitSampling = UART_ONE_BIT_SAMPLE_DISABLE;
 279              		.loc 1 27 5 is_stmt 1 view .LVU68
  27:Src/gps.c     ****     huart2.Init.OneBitSampling = UART_ONE_BIT_SAMPLE_DISABLE;
 280              		.loc 1 27 32 is_stmt 0 view .LVU69
 281 001c 0362     		str	r3, [r0, #32]
  28:Src/gps.c     ****     huart2.AdvancedInit.AdvFeatureInit = UART_ADVFEATURE_NO_INIT;
 282              		.loc 1 28 5 is_stmt 1 view .LVU70
  28:Src/gps.c     ****     huart2.AdvancedInit.AdvFeatureInit = UART_ADVFEATURE_NO_INIT;
 283              		.loc 1 28 40 is_stmt 0 view .LVU71
 284 001e 4362     		str	r3, [r0, #36]
  29:Src/gps.c     ****     if (HAL_UART_DeInit(&huart2) != HAL_OK)
 285              		.loc 1 29 5 is_stmt 1 view .LVU72
  29:Src/gps.c     ****     if (HAL_UART_DeInit(&huart2) != HAL_OK)
 286              		.loc 1 29 9 is_stmt 0 view .LVU73
 287 0020 FFF7FEFF 		bl	HAL_UART_DeInit
 288              	.LVL14:
  29:Src/gps.c     ****     if (HAL_UART_DeInit(&huart2) != HAL_OK)
 289              		.loc 1 29 8 view .LVU74
 290 0024 0028     		cmp	r0, #0
 291 0026 7FD1     		bne	.L22
ARM GAS  /tmp/ccLv14hQ.s 			page 13


 292              	.L17:
  33:Src/gps.c     **** 	if (HAL_UART_Init(&huart2) != HAL_OK)
 293              		.loc 1 33 2 is_stmt 1 view .LVU75
  33:Src/gps.c     **** 	if (HAL_UART_Init(&huart2) != HAL_OK)
 294              		.loc 1 33 6 is_stmt 0 view .LVU76
 295 0028 4D48     		ldr	r0, .L26
 296 002a FFF7FEFF 		bl	HAL_UART_Init
 297              	.LVL15:
  33:Src/gps.c     **** 	if (HAL_UART_Init(&huart2) != HAL_OK)
 298              		.loc 1 33 5 view .LVU77
 299 002e 0028     		cmp	r0, #0
 300 0030 40F08180 		bne	.L23
 301              	.L18:
  37:Src/gps.c     **** 	HAL_UART_Transmit(&huart2, (uint8_t *)PMTK_SET_BAUD_115200, strlen(PMTK_SET_BAUD_115200), 200);
 302              		.loc 1 37 2 is_stmt 1 view .LVU78
 303 0034 4A4D     		ldr	r5, .L26
 304 0036 C823     		movs	r3, #200
 305 0038 1422     		movs	r2, #20
 306 003a 4A49     		ldr	r1, .L26+4
 307 003c 2846     		mov	r0, r5
 308 003e FFF7FEFF 		bl	HAL_UART_Transmit
 309              	.LVL16:
  38:Src/gps.c     **** 	HAL_Delay(500);
 310              		.loc 1 38 2 view .LVU79
 311 0042 4FF4FA70 		mov	r0, #500
 312 0046 FFF7FEFF 		bl	HAL_Delay
 313              	.LVL17:
  44:Src/gps.c     **** 	huart2.Init.BaudRate = 115200;
 314              		.loc 1 44 2 view .LVU80
  44:Src/gps.c     **** 	huart2.Init.BaudRate = 115200;
 315              		.loc 1 44 23 is_stmt 0 view .LVU81
 316 004a 4FF4E133 		mov	r3, #115200
 317 004e 6B60     		str	r3, [r5, #4]
  45:Src/gps.c     ****     if (HAL_UART_DeInit(&huart2) != HAL_OK)
 318              		.loc 1 45 5 is_stmt 1 view .LVU82
  45:Src/gps.c     ****     if (HAL_UART_DeInit(&huart2) != HAL_OK)
 319              		.loc 1 45 9 is_stmt 0 view .LVU83
 320 0050 2846     		mov	r0, r5
 321 0052 FFF7FEFF 		bl	HAL_UART_DeInit
 322              	.LVL18:
  45:Src/gps.c     ****     if (HAL_UART_DeInit(&huart2) != HAL_OK)
 323              		.loc 1 45 8 view .LVU84
 324 0056 0028     		cmp	r0, #0
 325 0058 74D1     		bne	.L24
 326              	.L19:
  49:Src/gps.c     ****     huart2.Init.BaudRate = 115200;
 327              		.loc 1 49 5 is_stmt 1 view .LVU85
  49:Src/gps.c     ****     huart2.Init.BaudRate = 115200;
 328              		.loc 1 49 26 is_stmt 0 view .LVU86
 329 005a 4148     		ldr	r0, .L26
 330 005c 4FF4E133 		mov	r3, #115200
 331 0060 4360     		str	r3, [r0, #4]
  50:Src/gps.c     ****     huart2.Init.WordLength = UART_WORDLENGTH_8B;
 332              		.loc 1 50 5 is_stmt 1 view .LVU87
  50:Src/gps.c     ****     huart2.Init.WordLength = UART_WORDLENGTH_8B;
 333              		.loc 1 50 28 is_stmt 0 view .LVU88
 334 0062 0023     		movs	r3, #0
ARM GAS  /tmp/ccLv14hQ.s 			page 14


 335 0064 8360     		str	r3, [r0, #8]
  51:Src/gps.c     ****     huart2.Init.StopBits = UART_STOPBITS_1;
 336              		.loc 1 51 5 is_stmt 1 view .LVU89
  51:Src/gps.c     ****     huart2.Init.StopBits = UART_STOPBITS_1;
 337              		.loc 1 51 26 is_stmt 0 view .LVU90
 338 0066 C360     		str	r3, [r0, #12]
  52:Src/gps.c     ****     huart2.Init.Parity = UART_PARITY_NONE;
 339              		.loc 1 52 5 is_stmt 1 view .LVU91
  52:Src/gps.c     ****     huart2.Init.Parity = UART_PARITY_NONE;
 340              		.loc 1 52 24 is_stmt 0 view .LVU92
 341 0068 0361     		str	r3, [r0, #16]
  53:Src/gps.c     ****     huart2.Init.Mode = UART_MODE_TX_RX;
 342              		.loc 1 53 5 is_stmt 1 view .LVU93
  53:Src/gps.c     ****     huart2.Init.Mode = UART_MODE_TX_RX;
 343              		.loc 1 53 22 is_stmt 0 view .LVU94
 344 006a 0C22     		movs	r2, #12
 345 006c 4261     		str	r2, [r0, #20]
  54:Src/gps.c     ****     huart2.Init.HwFlowCtl = UART_HWCONTROL_NONE;
 346              		.loc 1 54 5 is_stmt 1 view .LVU95
  54:Src/gps.c     ****     huart2.Init.HwFlowCtl = UART_HWCONTROL_NONE;
 347              		.loc 1 54 27 is_stmt 0 view .LVU96
 348 006e 8361     		str	r3, [r0, #24]
  55:Src/gps.c     ****     huart2.Init.OverSampling = UART_OVERSAMPLING_16;
 349              		.loc 1 55 5 is_stmt 1 view .LVU97
  55:Src/gps.c     ****     huart2.Init.OverSampling = UART_OVERSAMPLING_16;
 350              		.loc 1 55 30 is_stmt 0 view .LVU98
 351 0070 C361     		str	r3, [r0, #28]
  56:Src/gps.c     ****     huart2.Init.OneBitSampling = UART_ONE_BIT_SAMPLE_DISABLE;
 352              		.loc 1 56 5 is_stmt 1 view .LVU99
  56:Src/gps.c     ****     huart2.Init.OneBitSampling = UART_ONE_BIT_SAMPLE_DISABLE;
 353              		.loc 1 56 32 is_stmt 0 view .LVU100
 354 0072 0362     		str	r3, [r0, #32]
  57:Src/gps.c     ****     huart2.AdvancedInit.AdvFeatureInit = UART_ADVFEATURE_NO_INIT;
 355              		.loc 1 57 5 is_stmt 1 view .LVU101
  57:Src/gps.c     ****     huart2.AdvancedInit.AdvFeatureInit = UART_ADVFEATURE_NO_INIT;
 356              		.loc 1 57 40 is_stmt 0 view .LVU102
 357 0074 4362     		str	r3, [r0, #36]
  58:Src/gps.c     **** 	if (HAL_UART_Init(&huart2) != HAL_OK)
 358              		.loc 1 58 2 is_stmt 1 view .LVU103
  58:Src/gps.c     **** 	if (HAL_UART_Init(&huart2) != HAL_OK)
 359              		.loc 1 58 6 is_stmt 0 view .LVU104
 360 0076 FFF7FEFF 		bl	HAL_UART_Init
 361              	.LVL19:
  58:Src/gps.c     **** 	if (HAL_UART_Init(&huart2) != HAL_OK)
 362              		.loc 1 58 5 view .LVU105
 363 007a 0028     		cmp	r0, #0
 364 007c 69D1     		bne	.L25
 365              	.L20:
  62:Src/gps.c     **** 	HAL_UART_Transmit(&huart2, (uint8_t *)PMTK_SET_BAUD_115200, strlen(PMTK_SET_BAUD_115200), 200);
 366              		.loc 1 62 2 is_stmt 1 view .LVU106
 367 007e 384D     		ldr	r5, .L26
 368 0080 C823     		movs	r3, #200
 369 0082 1422     		movs	r2, #20
 370 0084 3749     		ldr	r1, .L26+4
 371 0086 2846     		mov	r0, r5
 372 0088 FFF7FEFF 		bl	HAL_UART_Transmit
 373              	.LVL20:
ARM GAS  /tmp/ccLv14hQ.s 			page 15


  63:Src/gps.c     **** 	HAL_Delay(500);
 374              		.loc 1 63 2 view .LVU107
 375 008c 4FF4FA70 		mov	r0, #500
 376 0090 FFF7FEFF 		bl	HAL_Delay
 377              	.LVL21:
  64:Src/gps.c     **** 	HAL_UART_Transmit(&huart2, (uint8_t *)PMTK_SET_NMEA_UPDATE_10HZ, strlen(PMTK_SET_NMEA_UPDATE_10HZ)
 378              		.loc 1 64 2 view .LVU108
 379 0094 C823     		movs	r3, #200
 380 0096 1122     		movs	r2, #17
 381 0098 3349     		ldr	r1, .L26+8
 382 009a 2846     		mov	r0, r5
 383 009c FFF7FEFF 		bl	HAL_UART_Transmit
 384              	.LVL22:
  65:Src/gps.c     **** 	HAL_Delay(500);
 385              		.loc 1 65 2 view .LVU109
 386 00a0 4FF4FA70 		mov	r0, #500
 387 00a4 FFF7FEFF 		bl	HAL_Delay
 388              	.LVL23:
  66:Src/gps.c     **** 	HAL_UART_Transmit(&huart2, (uint8_t *)PMTK_SET_NMEA_OUTPUT_GGAVTG, strlen(PMTK_SET_NMEA_OUTPUT_GGA
 389              		.loc 1 66 2 view .LVU110
 390 00a8 C823     		movs	r3, #200
 391 00aa 3322     		movs	r2, #51
 392 00ac 2F49     		ldr	r1, .L26+12
 393 00ae 2846     		mov	r0, r5
 394 00b0 FFF7FEFF 		bl	HAL_UART_Transmit
 395              	.LVL24:
  67:Src/gps.c     **** 	HAL_Delay(500);
 396              		.loc 1 67 2 view .LVU111
 397 00b4 4FF4FA70 		mov	r0, #500
 398 00b8 FFF7FEFF 		bl	HAL_Delay
 399              	.LVL25:
  68:Src/gps.c     **** 	strcpy(gps->speed, "000.00");
 400              		.loc 1 68 2 view .LVU112
 401 00bc 2C4B     		ldr	r3, .L26+16
 402 00be 1868     		ldr	r0, [r3]
 403 00c0 2060     		str	r0, [r4]	@ unaligned
 404 00c2 9A88     		ldrh	r2, [r3, #4]	@ unaligned
 405 00c4 9B79     		ldrb	r3, [r3, #6]	@ zero_extendqisi2
 406 00c6 A280     		strh	r2, [r4, #4]	@ unaligned
 407 00c8 A371     		strb	r3, [r4, #6]
  69:Src/gps.c     **** 	strcpy(gps->latitude, "0000.0000");
 408              		.loc 1 69 2 view .LVU113
 409 00ca 2A4B     		ldr	r3, .L26+20
 410 00cc 03CB     		ldmia	r3!, {r0, r1}
 411 00ce E060     		str	r0, [r4, #12]	@ unaligned
 412 00d0 2161     		str	r1, [r4, #16]	@ unaligned
 413 00d2 1B88     		ldrh	r3, [r3]	@ unaligned
 414 00d4 A382     		strh	r3, [r4, #20]	@ unaligned
  70:Src/gps.c     **** 	strcpy(gps->latitude_o, "N");
 415              		.loc 1 70 2 view .LVU114
 416 00d6 284B     		ldr	r3, .L26+24
 417 00d8 1B88     		ldrh	r3, [r3]	@ unaligned
 418 00da A383     		strh	r3, [r4, #28]	@ unaligned
  71:Src/gps.c     **** 	strcpy(gps->longitude, "00000.0000");
 419              		.loc 1 71 2 view .LVU115
 420 00dc 274B     		ldr	r3, .L26+28
 421 00de 03CB     		ldmia	r3!, {r0, r1}
ARM GAS  /tmp/ccLv14hQ.s 			page 16


 422 00e0 E062     		str	r0, [r4, #44]	@ unaligned
 423 00e2 2163     		str	r1, [r4, #48]	@ unaligned
 424 00e4 1A88     		ldrh	r2, [r3]	@ unaligned
 425 00e6 9B78     		ldrb	r3, [r3, #2]	@ zero_extendqisi2
 426 00e8 A286     		strh	r2, [r4, #52]	@ unaligned
 427 00ea 84F83630 		strb	r3, [r4, #54]
  72:Src/gps.c     **** 	strcpy(gps->longitude_o, "W");
 428              		.loc 1 72 2 view .LVU116
 429 00ee 244B     		ldr	r3, .L26+32
 430 00f0 1B88     		ldrh	r3, [r3]	@ unaligned
 431 00f2 A387     		strh	r3, [r4, #60]	@ unaligned
  73:Src/gps.c     **** 	strcpy(gps->altitude, "0000.0");
 432              		.loc 1 73 2 view .LVU117
 433 00f4 234B     		ldr	r3, .L26+36
 434 00f6 1868     		ldr	r0, [r3]
 435 00f8 E064     		str	r0, [r4, #76]	@ unaligned
 436 00fa 9A88     		ldrh	r2, [r3, #4]	@ unaligned
 437 00fc 9B79     		ldrb	r3, [r3, #6]	@ zero_extendqisi2
 438 00fe A4F85020 		strh	r2, [r4, #80]	@ unaligned
 439 0102 84F85230 		strb	r3, [r4, #82]
  74:Src/gps.c     **** 	strcpy(gps->hour, "00");
 440              		.loc 1 74 2 view .LVU118
 441 0106 204B     		ldr	r3, .L26+40
 442 0108 1A88     		ldrh	r2, [r3]	@ unaligned
 443 010a 9B78     		ldrb	r3, [r3, #2]	@ zero_extendqisi2
 444 010c A4F85820 		strh	r2, [r4, #88]	@ unaligned
 445 0110 84F85A30 		strb	r3, [r4, #90]
  75:Src/gps.c     ****     strcpy(gps->min, "00");
 446              		.loc 1 75 5 view .LVU119
 447 0114 A4F85B20 		strh	r2, [r4, #91]	@ unaligned
 448 0118 84F85D30 		strb	r3, [r4, #93]
  76:Src/gps.c     ****     strcpy(gps->sec, "00");
 449              		.loc 1 76 5 view .LVU120
 450 011c A4F85E20 		strh	r2, [r4, #94]	@ unaligned
 451 0120 84F86030 		strb	r3, [r4, #96]
  79:Src/gps.c     **** 	return 1;
 452              		.loc 1 79 2 view .LVU121
  80:Src/gps.c     **** }
 453              		.loc 1 80 1 is_stmt 0 view .LVU122
 454 0124 0120     		movs	r0, #1
 455 0126 38BD     		pop	{r3, r4, r5, pc}
 456              	.LVL26:
 457              	.L22:
  31:Src/gps.c     ****         HAL_UART_Transmit(&huart3,(uint8_t*)"ERRORE 3\r\n",6,10);
 458              		.loc 1 31 9 is_stmt 1 view .LVU123
 459 0128 0A23     		movs	r3, #10
 460 012a 0622     		movs	r2, #6
 461 012c 1749     		ldr	r1, .L26+44
 462 012e 1848     		ldr	r0, .L26+48
 463 0130 FFF7FEFF 		bl	HAL_UART_Transmit
 464              	.LVL27:
 465 0134 78E7     		b	.L17
 466              	.L23:
  35:Src/gps.c     ****         HAL_UART_Transmit(&huart3,(uint8_t*)"ERRORE 4\r\n",6,10);
 467              		.loc 1 35 9 view .LVU124
 468 0136 0A23     		movs	r3, #10
 469 0138 0622     		movs	r2, #6
ARM GAS  /tmp/ccLv14hQ.s 			page 17


 470 013a 1649     		ldr	r1, .L26+52
 471 013c 1448     		ldr	r0, .L26+48
 472 013e FFF7FEFF 		bl	HAL_UART_Transmit
 473              	.LVL28:
 474 0142 77E7     		b	.L18
 475              	.L24:
  47:Src/gps.c     ****         HAL_UART_Transmit(&huart3,(uint8_t*)"ERRORE 5\r\n",6,10);
 476              		.loc 1 47 9 view .LVU125
 477 0144 0A23     		movs	r3, #10
 478 0146 0622     		movs	r2, #6
 479 0148 1349     		ldr	r1, .L26+56
 480 014a 1148     		ldr	r0, .L26+48
 481 014c FFF7FEFF 		bl	HAL_UART_Transmit
 482              	.LVL29:
 483 0150 83E7     		b	.L19
 484              	.L25:
  60:Src/gps.c     ****         HAL_UART_Transmit(&huart3,(uint8_t*)"ERRORE 6\r\n",6,10);
 485              		.loc 1 60 9 view .LVU126
 486 0152 0A23     		movs	r3, #10
 487 0154 0622     		movs	r2, #6
 488 0156 1149     		ldr	r1, .L26+60
 489 0158 0D48     		ldr	r0, .L26+48
 490 015a FFF7FEFF 		bl	HAL_UART_Transmit
 491              	.LVL30:
 492 015e 8EE7     		b	.L20
 493              	.L27:
 494              		.align	2
 495              	.L26:
 496 0160 00000000 		.word	huart2
 497 0164 18000000 		.word	.LC3
 498 0168 48000000 		.word	.LC6
 499 016c 5C000000 		.word	.LC7
 500 0170 90000000 		.word	.LC8
 501 0174 98000000 		.word	.LC9
 502 0178 A4000000 		.word	.LC10
 503 017c A8000000 		.word	.LC11
 504 0180 B4000000 		.word	.LC12
 505 0184 B8000000 		.word	.LC13
 506 0188 C0000000 		.word	.LC14
 507 018c 00000000 		.word	.LC1
 508 0190 00000000 		.word	huart3
 509 0194 0C000000 		.word	.LC2
 510 0198 30000000 		.word	.LC4
 511 019c 3C000000 		.word	.LC5
 512              		.cfi_endproc
 513              	.LFE144:
 515              		.section	.rodata.gps_read.str1.4,"aMS",%progbits,1
 516              		.align	2
 517              	.LC15:
 518 0000 4E4F2043 		.ascii	"NO CONNECTION\015\012\000"
 518      4F4E4E45 
 518      4354494F 
 518      4E0D0A00 
 519              		.align	2
 520              	.LC16:
 521 0010 6C617469 		.ascii	"latitude %ld %c\000"
 521      74756465 
ARM GAS  /tmp/ccLv14hQ.s 			page 18


 521      20256C64 
 521      20256300 
 522              		.align	2
 523              	.LC17:
 524 0020 6C6F6E67 		.ascii	"longitude %ld %c\000"
 524      69747564 
 524      6520256C 
 524      64202563 
 524      00
 525 0031 000000   		.align	2
 526              	.LC18:
 527 0034 74696D65 		.ascii	"time %c%c:%c%c:%c%c\000"
 527      20256325 
 527      633A2563 
 527      25633A25 
 527      63256300 
 528              		.align	2
 529              	.LC19:
 530 0048 43484543 		.ascii	"CHECKSUM FAIL\015\012\000"
 530      4B53554D 
 530      20464149 
 530      4C0D0A00 
 531              		.align	2
 532              	.LC20:
 533 0058 6C6F6E67 		.ascii	"longitude %d\000"
 533      69747564 
 533      65202564 
 533      00
 534              		.section	.text.gps_read,"ax",%progbits
 535              		.align	1
 536              		.global	gps_read
 537              		.syntax unified
 538              		.thumb
 539              		.thumb_func
 540              		.fpu fpv5-d16
 542              	gps_read:
 543              	.LVL31:
 544              	.LFB145:
  83:Src/gps.c     **** {
 545              		.loc 1 83 1 view -0
 546              		.cfi_startproc
 547              		@ args = 0, pretend = 0, frame = 152
 548              		@ frame_needed = 0, uses_anonymous_args = 0
  83:Src/gps.c     **** {
 549              		.loc 1 83 1 is_stmt 0 view .LVU128
 550 0000 2DE9F043 		push	{r4, r5, r6, r7, r8, r9, lr}
 551              	.LCFI5:
 552              		.cfi_def_cfa_offset 28
 553              		.cfi_offset 4, -28
 554              		.cfi_offset 5, -24
 555              		.cfi_offset 6, -20
 556              		.cfi_offset 7, -16
 557              		.cfi_offset 8, -12
 558              		.cfi_offset 9, -8
 559              		.cfi_offset 14, -4
 560 0004 2DED028B 		vpush.64	{d8}
 561              	.LCFI6:
ARM GAS  /tmp/ccLv14hQ.s 			page 19


 562              		.cfi_def_cfa_offset 36
 563              		.cfi_offset 80, -36
 564              		.cfi_offset 81, -32
 565 0008 ABB0     		sub	sp, sp, #172
 566              	.LCFI7:
 567              		.cfi_def_cfa_offset 208
 568 000a 8846     		mov	r8, r1
  85:Src/gps.c     **** 	int ret = 0; //return--> 0=error,1=ok
 569              		.loc 1 85 2 is_stmt 1 view .LVU129
 570              	.LVL32:
 122:Src/gps.c     ****     int msg_arrived_s = msg_arrived;
 571              		.loc 1 122 5 view .LVU130
 122:Src/gps.c     ****     int msg_arrived_s = msg_arrived;
 572              		.loc 1 122 9 is_stmt 0 view .LVU131
 573 000c C04B     		ldr	r3, .L87+8
 574 000e 1F68     		ldr	r7, [r3]
 575              	.LVL33:
 123:Src/gps.c     ****     msg_arrived = 0;
 576              		.loc 1 123 5 is_stmt 1 view .LVU132
 123:Src/gps.c     ****     msg_arrived = 0;
 577              		.loc 1 123 17 is_stmt 0 view .LVU133
 578 0010 0022     		movs	r2, #0
 579 0012 1A60     		str	r2, [r3]
 124:Src/gps.c     ****     char buffer_gps_s[50]; 
 580              		.loc 1 124 5 is_stmt 1 view .LVU134
 125:Src/gps.c     ****     memcpy(buffer_gps_s, buffer_gps, 50);
 581              		.loc 1 125 5 view .LVU135
 582 0014 BF4C     		ldr	r4, .L87+12
 583 0016 1DAE     		add	r6, sp, #116
 584 0018 04F1300C 		add	ip, r4, #48
 585              	.LVL34:
 586              	.L29:
 125:Src/gps.c     ****     memcpy(buffer_gps_s, buffer_gps, 50);
 587              		.loc 1 125 5 is_stmt 0 view .LVU136
 588 001c 3546     		mov	r5, r6
 589 001e 2068     		ldr	r0, [r4]	@ unaligned
 590 0020 6168     		ldr	r1, [r4, #4]	@ unaligned
 591 0022 A268     		ldr	r2, [r4, #8]	@ unaligned
 592 0024 E368     		ldr	r3, [r4, #12]	@ unaligned
 593 0026 0FC5     		stmia	r5!, {r0, r1, r2, r3}
 594 0028 1034     		adds	r4, r4, #16
 595 002a 2E46     		mov	r6, r5
 596 002c 6445     		cmp	r4, ip
 597 002e F5D1     		bne	.L29
 598 0030 2388     		ldrh	r3, [r4]	@ unaligned
 599 0032 2B80     		strh	r3, [r5]	@ unaligned
 126:Src/gps.c     ****     if(msg_arrived_s > 0){
 600              		.loc 1 126 5 is_stmt 1 view .LVU137
 126:Src/gps.c     ****     if(msg_arrived_s > 0){
 601              		.loc 1 126 7 is_stmt 0 view .LVU138
 602 0034 002F     		cmp	r7, #0
 603 0036 02DD     		ble	.L65
 604              	.LBB3:
 127:Src/gps.c     ****         for(int i = 0; i < msg_arrived_s; i++){
 605              		.loc 1 127 17 view .LVU139
 606 0038 0024     		movs	r4, #0
 607              	.LBE3:
ARM GAS  /tmp/ccLv14hQ.s 			page 20


  85:Src/gps.c     **** 	int ret = 0; //return--> 0=error,1=ok
 608              		.loc 1 85 6 view .LVU140
 609 003a 2546     		mov	r5, r4
 610 003c 1DE0     		b	.L30
 611              	.L65:
 612 003e 0025     		movs	r5, #0
 613 0040 D1E1     		b	.L28
 614              	.LVL35:
 615              	.L69:
 616              	.LBB14:
 129:Src/gps.c     ****             if ((start_string_gps == 1) && (data_string_gps != '$'))
 617              		.loc 1 129 41 discriminator 1 view .LVU141
 618 0042 242B     		cmp	r3, #36
 619 0044 26D0     		beq	.L32
 131:Src/gps.c     ****                 string_gps[cont_string] = data_string_gps; //save the data into the array
 620              		.loc 1 131 17 is_stmt 1 view .LVU142
 131:Src/gps.c     ****                 string_gps[cont_string] = data_string_gps; //save the data into the array
 621              		.loc 1 131 27 is_stmt 0 view .LVU143
 622 0046 B44A     		ldr	r2, .L87+16
 623 0048 1168     		ldr	r1, [r2]
 131:Src/gps.c     ****                 string_gps[cont_string] = data_string_gps; //save the data into the array
 624              		.loc 1 131 41 view .LVU144
 625 004a B448     		ldr	r0, .L87+20
 626 004c 4354     		strb	r3, [r0, r1]
 132:Src/gps.c     ****                 cont_string++;
 627              		.loc 1 132 17 is_stmt 1 view .LVU145
 132:Src/gps.c     ****                 cont_string++;
 628              		.loc 1 132 28 is_stmt 0 view .LVU146
 629 004e 481C     		adds	r0, r1, #1
 630 0050 1060     		str	r0, [r2]
 133:Src/gps.c     ****                 if (string_gps[cont_string - 1] == '\r' || string_gps[cont_string - 1] == '\n')
 631              		.loc 1 133 17 is_stmt 1 view .LVU147
 133:Src/gps.c     ****                 if (string_gps[cont_string - 1] == '\r' || string_gps[cont_string - 1] == '\n')
 632              		.loc 1 133 20 is_stmt 0 view .LVU148
 633 0052 0A2B     		cmp	r3, #10
 634 0054 18BF     		it	ne
 635 0056 0D2B     		cmpne	r3, #13
 636 0058 0ED1     		bne	.L33
 135:Src/gps.c     ****                     cont_string--;
 637              		.loc 1 135 21 is_stmt 1 view .LVU149
 135:Src/gps.c     ****                     cont_string--;
 638              		.loc 1 135 32 is_stmt 0 view .LVU150
 639 005a 1160     		str	r1, [r2]
 136:Src/gps.c     ****                     string_gps[cont_string] = '\0'; // '\0'=end of the string
 640              		.loc 1 136 21 is_stmt 1 view .LVU151
 136:Src/gps.c     ****                     string_gps[cont_string] = '\0'; // '\0'=end of the string
 641              		.loc 1 136 45 is_stmt 0 view .LVU152
 642 005c AF4B     		ldr	r3, .L87+20
 643 005e 0022     		movs	r2, #0
 644 0060 5A54     		strb	r2, [r3, r1]
 137:Src/gps.c     ****                     start_string_gps = 0;			//end of string
 645              		.loc 1 137 21 is_stmt 1 view .LVU153
 137:Src/gps.c     ****                     start_string_gps = 0;			//end of string
 646              		.loc 1 137 38 is_stmt 0 view .LVU154
 647 0062 AF48     		ldr	r0, .L87+24
 648 0064 0260     		str	r2, [r0]
 138:Src/gps.c     ****                     if (string_gps[2] == 'G' && string_gps[3] == 'G' && string_gps[4] == 'A')
ARM GAS  /tmp/ccLv14hQ.s 			page 21


 649              		.loc 1 138 21 is_stmt 1 view .LVU155
 138:Src/gps.c     ****                     if (string_gps[2] == 'G' && string_gps[3] == 'G' && string_gps[4] == 'A')
 650              		.loc 1 138 35 is_stmt 0 view .LVU156
 651 0066 9B78     		ldrb	r3, [r3, #2]	@ zero_extendqisi2
 138:Src/gps.c     ****                     if (string_gps[2] == 'G' && string_gps[3] == 'G' && string_gps[4] == 'A')
 652              		.loc 1 138 24 view .LVU157
 653 0068 472B     		cmp	r3, #71
 654 006a 1CD0     		beq	.L66
 655              	.L34:
 240:Src/gps.c     ****                     else if (string_gps[2] == 'V' && string_gps[3] == 'T' && string_gps[4] == 'G')
 656              		.loc 1 240 26 is_stmt 1 view .LVU158
 240:Src/gps.c     ****                     else if (string_gps[2] == 'V' && string_gps[3] == 'T' && string_gps[4] == 'G')
 657              		.loc 1 240 29 is_stmt 0 view .LVU159
 658 006c 562B     		cmp	r3, #86
 659 006e 00F02981 		beq	.L67
 660              	.LVL36:
 661              	.L50:
 289:Src/gps.c     ****                     strcpy(string_gps, "");
 662              		.loc 1 289 21 is_stmt 1 view .LVU160
 663 0072 AA4B     		ldr	r3, .L87+20
 664 0074 0022     		movs	r2, #0
 665 0076 1A70     		strb	r2, [r3]
 666              	.L33:
 127:Src/gps.c     ****         for(int i = 0; i < msg_arrived_s; i++){
 667              		.loc 1 127 43 discriminator 2 view .LVU161
 127:Src/gps.c     ****         for(int i = 0; i < msg_arrived_s; i++){
 668              		.loc 1 127 44 is_stmt 0 discriminator 2 view .LVU162
 669 0078 0134     		adds	r4, r4, #1
 670              	.LVL37:
 671              	.L30:
 127:Src/gps.c     ****         for(int i = 0; i < msg_arrived_s; i++){
 672              		.loc 1 127 24 is_stmt 1 discriminator 1 view .LVU163
 127:Src/gps.c     ****         for(int i = 0; i < msg_arrived_s; i++){
 673              		.loc 1 127 9 is_stmt 0 discriminator 1 view .LVU164
 674 007a BC42     		cmp	r4, r7
 675 007c 80F2AF81 		bge	.L68
 128:Src/gps.c     ****             data_string_gps = buffer_gps_s[i];
 676              		.loc 1 128 13 is_stmt 1 view .LVU165
 128:Src/gps.c     ****             data_string_gps = buffer_gps_s[i];
 677              		.loc 1 128 43 is_stmt 0 view .LVU166
 678 0080 2AAB     		add	r3, sp, #168
 679 0082 2344     		add	r3, r3, r4
 680 0084 13F8343C 		ldrb	r3, [r3, #-52]	@ zero_extendqisi2
 128:Src/gps.c     ****             data_string_gps = buffer_gps_s[i];
 681              		.loc 1 128 29 view .LVU167
 682 0088 A64A     		ldr	r2, .L87+28
 683 008a 1370     		strb	r3, [r2]
 129:Src/gps.c     ****             if ((start_string_gps == 1) && (data_string_gps != '$'))
 684              		.loc 1 129 13 is_stmt 1 view .LVU168
 129:Src/gps.c     ****             if ((start_string_gps == 1) && (data_string_gps != '$'))
 685              		.loc 1 129 35 is_stmt 0 view .LVU169
 686 008c A44A     		ldr	r2, .L87+24
 687 008e 1268     		ldr	r2, [r2]
 129:Src/gps.c     ****             if ((start_string_gps == 1) && (data_string_gps != '$'))
 688              		.loc 1 129 16 view .LVU170
 689 0090 012A     		cmp	r2, #1
 690 0092 D6D0     		beq	.L69
ARM GAS  /tmp/ccLv14hQ.s 			page 22


 691              	.L32:
 294:Src/gps.c     ****                 if (data_string_gps == '$')
 692              		.loc 1 294 17 is_stmt 1 view .LVU171
 294:Src/gps.c     ****                 if (data_string_gps == '$')
 693              		.loc 1 294 20 is_stmt 0 view .LVU172
 694 0094 242B     		cmp	r3, #36
 695 0096 EFD1     		bne	.L33
 296:Src/gps.c     ****                     start_string_gps = 1; //new string started
 696              		.loc 1 296 21 is_stmt 1 view .LVU173
 296:Src/gps.c     ****                     start_string_gps = 1; //new string started
 697              		.loc 1 296 38 is_stmt 0 view .LVU174
 698 0098 A14B     		ldr	r3, .L87+24
 699 009a 0122     		movs	r2, #1
 700 009c 1A60     		str	r2, [r3]
 297:Src/gps.c     ****                     cont_string = 0;	  //set the counter to 1
 701              		.loc 1 297 21 is_stmt 1 view .LVU175
 297:Src/gps.c     ****                     cont_string = 0;	  //set the counter to 1
 702              		.loc 1 297 33 is_stmt 0 view .LVU176
 703 009e 9E4B     		ldr	r3, .L87+16
 704 00a0 0022     		movs	r2, #0
 705 00a2 1A60     		str	r2, [r3]
 706 00a4 E8E7     		b	.L33
 707              	.L66:
 138:Src/gps.c     ****                     if (string_gps[2] == 'G' && string_gps[3] == 'G' && string_gps[4] == 'A')
 708              		.loc 1 138 59 discriminator 1 view .LVU177
 709 00a6 9D4A     		ldr	r2, .L87+20
 710 00a8 D278     		ldrb	r2, [r2, #3]	@ zero_extendqisi2
 138:Src/gps.c     ****                     if (string_gps[2] == 'G' && string_gps[3] == 'G' && string_gps[4] == 'A')
 711              		.loc 1 138 46 discriminator 1 view .LVU178
 712 00aa 472A     		cmp	r2, #71
 713 00ac DED1     		bne	.L34
 138:Src/gps.c     ****                     if (string_gps[2] == 'G' && string_gps[3] == 'G' && string_gps[4] == 'A')
 714              		.loc 1 138 83 discriminator 2 view .LVU179
 715 00ae 9B4A     		ldr	r2, .L87+20
 716 00b0 1279     		ldrb	r2, [r2, #4]	@ zero_extendqisi2
 138:Src/gps.c     ****                     if (string_gps[2] == 'G' && string_gps[3] == 'G' && string_gps[4] == 'A')
 717              		.loc 1 138 70 discriminator 2 view .LVU180
 718 00b2 412A     		cmp	r2, #65
 719 00b4 DAD1     		bne	.L34
 143:Src/gps.c     ****                         if (checksum(string_gps, cont_string) == 1)
 720              		.loc 1 143 25 is_stmt 1 view .LVU181
 143:Src/gps.c     ****                         if (checksum(string_gps, cont_string) == 1)
 721              		.loc 1 143 29 is_stmt 0 view .LVU182
 722 00b6 9948     		ldr	r0, .L87+20
 723 00b8 FFF7FEFF 		bl	checksum
 724              	.LVL38:
 725 00bc 0546     		mov	r5, r0
 726              	.LVL39:
 143:Src/gps.c     ****                         if (checksum(string_gps, cont_string) == 1)
 727              		.loc 1 143 28 view .LVU183
 728 00be 0128     		cmp	r0, #1
 729 00c0 66D0     		beq	.L70
 730              	.LBB4:
 234:Src/gps.c     ****                             char txt[100];
 731              		.loc 1 234 29 is_stmt 1 view .LVU184
 235:Src/gps.c     ****                             sprintf(txt,"CHECKSUM FAIL\r\n");
 732              		.loc 1 235 29 view .LVU185
ARM GAS  /tmp/ccLv14hQ.s 			page 23


 733 00c2 04AD     		add	r5, sp, #16
 734 00c4 984B     		ldr	r3, .L87+32
 735 00c6 0FCB     		ldm	r3, {r0, r1, r2, r3}
 736 00c8 85E80F00 		stm	r5, {r0, r1, r2, r3}
 236:Src/gps.c     ****                             HAL_UART_Transmit(&huart3,(uint8_t*)txt,strlen(txt),10);
 737              		.loc 1 236 29 view .LVU186
 236:Src/gps.c     ****                             HAL_UART_Transmit(&huart3,(uint8_t*)txt,strlen(txt),10);
 738              		.loc 1 236 69 is_stmt 0 view .LVU187
 739 00cc 2846     		mov	r0, r5
 740 00ce FFF7FEFF 		bl	strlen
 741              	.LVL40:
 236:Src/gps.c     ****                             HAL_UART_Transmit(&huart3,(uint8_t*)txt,strlen(txt),10);
 742              		.loc 1 236 29 view .LVU188
 743 00d2 0A23     		movs	r3, #10
 744 00d4 82B2     		uxth	r2, r0
 745 00d6 2946     		mov	r1, r5
 746 00d8 9448     		ldr	r0, .L87+36
 747 00da FFF7FEFF 		bl	HAL_UART_Transmit
 748              	.LVL41:
 237:Src/gps.c     ****                             ret = 0; //checksum failed
 749              		.loc 1 237 29 is_stmt 1 view .LVU189
 237:Src/gps.c     ****                             ret = 0; //checksum failed
 750              		.loc 1 237 33 is_stmt 0 view .LVU190
 751 00de 0025     		movs	r5, #0
 752 00e0 C7E7     		b	.L50
 753              	.LVL42:
 754              	.L72:
 237:Src/gps.c     ****                             ret = 0; //checksum failed
 755              		.loc 1 237 33 view .LVU191
 756              	.LBE4:
 757              	.LBB5:
 758              	.LBB6:
 149:Src/gps.c     ****                                     cont_comma++;
 759              		.loc 1 149 37 is_stmt 1 view .LVU192
 149:Src/gps.c     ****                                     cont_comma++;
 760              		.loc 1 149 47 is_stmt 0 view .LVU193
 761 00e2 0130     		adds	r0, r0, #1
 762              	.LVL43:
 763              	.L38:
 146:Src/gps.c     ****                             for (int i = 5; i < 100; i++)
 764              		.loc 1 146 54 is_stmt 1 discriminator 2 view .LVU194
 146:Src/gps.c     ****                             for (int i = 5; i < 100; i++)
 765              		.loc 1 146 55 is_stmt 0 discriminator 2 view .LVU195
 766 00e4 0133     		adds	r3, r3, #1
 767              	.LVL44:
 768              	.L35:
 146:Src/gps.c     ****                             for (int i = 5; i < 100; i++)
 769              		.loc 1 146 45 is_stmt 1 discriminator 1 view .LVU196
 146:Src/gps.c     ****                             for (int i = 5; i < 100; i++)
 770              		.loc 1 146 29 is_stmt 0 discriminator 1 view .LVU197
 771 00e6 632B     		cmp	r3, #99
 772 00e8 59DC     		bgt	.L71
 148:Src/gps.c     ****                                 if (string_gps[i] == ',')
 773              		.loc 1 148 33 is_stmt 1 view .LVU198
 148:Src/gps.c     ****                                 if (string_gps[i] == ',')
 774              		.loc 1 148 47 is_stmt 0 view .LVU199
 775 00ea 8C49     		ldr	r1, .L87+20
ARM GAS  /tmp/ccLv14hQ.s 			page 24


 776 00ec C95C     		ldrb	r1, [r1, r3]	@ zero_extendqisi2
 148:Src/gps.c     ****                                 if (string_gps[i] == ',')
 777              		.loc 1 148 36 view .LVU200
 778 00ee 2C29     		cmp	r1, #44
 779 00f0 F7D0     		beq	.L72
 152:Src/gps.c     ****                                     if (cont_comma == 1)
 780              		.loc 1 152 37 is_stmt 1 view .LVU201
 152:Src/gps.c     ****                                     if (cont_comma == 1)
 781              		.loc 1 152 40 is_stmt 0 view .LVU202
 782 00f2 0128     		cmp	r0, #1
 783 00f4 0FD0     		beq	.L73
 166:Src/gps.c     ****                                     else if (cont_comma == 2)
 784              		.loc 1 166 42 is_stmt 1 view .LVU203
 166:Src/gps.c     ****                                     else if (cont_comma == 2)
 785              		.loc 1 166 45 is_stmt 0 view .LVU204
 786 00f6 0228     		cmp	r0, #2
 787 00f8 2DD0     		beq	.L74
 172:Src/gps.c     ****                                     else if (cont_comma == 3)
 788              		.loc 1 172 42 is_stmt 1 view .LVU205
 172:Src/gps.c     ****                                     else if (cont_comma == 3)
 789              		.loc 1 172 45 is_stmt 0 view .LVU206
 790 00fa 0328     		cmp	r0, #3
 791 00fc 31D0     		beq	.L75
 176:Src/gps.c     ****                                     else if (cont_comma == 4)
 792              		.loc 1 176 42 is_stmt 1 view .LVU207
 176:Src/gps.c     ****                                     else if (cont_comma == 4)
 793              		.loc 1 176 45 is_stmt 0 view .LVU208
 794 00fe 0428     		cmp	r0, #4
 795 0100 32D0     		beq	.L76
 181:Src/gps.c     ****                                     else if (cont_comma == 5)
 796              		.loc 1 181 42 is_stmt 1 view .LVU209
 181:Src/gps.c     ****                                     else if (cont_comma == 5)
 797              		.loc 1 181 45 is_stmt 0 view .LVU210
 798 0102 0528     		cmp	r0, #5
 799 0104 37D0     		beq	.L77
 185:Src/gps.c     ****                                     else if (cont_comma == 6)
 800              		.loc 1 185 42 is_stmt 1 view .LVU211
 185:Src/gps.c     ****                                     else if (cont_comma == 6)
 801              		.loc 1 185 45 is_stmt 0 view .LVU212
 802 0106 0628     		cmp	r0, #6
 803 0108 38D0     		beq	.L78
 189:Src/gps.c     ****                                     else if (cont_comma == 9)
 804              		.loc 1 189 42 is_stmt 1 view .LVU213
 189:Src/gps.c     ****                                     else if (cont_comma == 9)
 805              		.loc 1 189 45 is_stmt 0 view .LVU214
 806 010a 0928     		cmp	r0, #9
 807 010c 39D0     		beq	.L79
 194:Src/gps.c     ****                                     else if (cont_comma == 10)
 808              		.loc 1 194 42 is_stmt 1 view .LVU215
 194:Src/gps.c     ****                                     else if (cont_comma == 10)
 809              		.loc 1 194 45 is_stmt 0 view .LVU216
 810 010e 0A28     		cmp	r0, #10
 811 0110 E8D1     		bne	.L38
 196:Src/gps.c     ****                                         i = 100; //end the cicle
 812              		.loc 1 196 43 view .LVU217
 813 0112 6423     		movs	r3, #100
 814              	.LVL45:
ARM GAS  /tmp/ccLv14hQ.s 			page 25


 196:Src/gps.c     ****                                         i = 100; //end the cicle
 815              		.loc 1 196 43 view .LVU218
 816 0114 E6E7     		b	.L38
 817              	.LVL46:
 818              	.L73:
 154:Src/gps.c     ****                                         if(cont_time < 2){
 819              		.loc 1 154 41 is_stmt 1 view .LVU219
 154:Src/gps.c     ****                                         if(cont_time < 2){
 820              		.loc 1 154 43 is_stmt 0 view .LVU220
 821 0116 012A     		cmp	r2, #1
 822 0118 0BDD     		ble	.L80
 157:Src/gps.c     ****                                         }else if(cont_time < 4){
 823              		.loc 1 157 47 is_stmt 1 view .LVU221
 157:Src/gps.c     ****                                         }else if(cont_time < 4){
 824              		.loc 1 157 49 is_stmt 0 view .LVU222
 825 011a 032A     		cmp	r2, #3
 826 011c 0FDC     		bgt	.L41
 158:Src/gps.c     ****                                             gps->min[cont_time % 2] = string_gps[i];
 827              		.loc 1 158 45 is_stmt 1 view .LVU223
 158:Src/gps.c     ****                                             gps->min[cont_time % 2] = string_gps[i];
 828              		.loc 1 158 64 is_stmt 0 view .LVU224
 829 011e 002A     		cmp	r2, #0
 830 0120 02F00106 		and	r6, r2, #1
 831 0124 B8BF     		it	lt
 832 0126 7642     		rsblt	r6, r6, #0
 158:Src/gps.c     ****                                             gps->min[cont_time % 2] = string_gps[i];
 833              		.loc 1 158 69 view .LVU225
 834 0128 4644     		add	r6, r6, r8
 835 012a 86F85B10 		strb	r1, [r6, #91]
 159:Src/gps.c     ****                                             cont_time++;
 836              		.loc 1 159 45 is_stmt 1 view .LVU226
 159:Src/gps.c     ****                                             cont_time++;
 837              		.loc 1 159 54 is_stmt 0 view .LVU227
 838 012e 0132     		adds	r2, r2, #1
 839              	.LVL47:
 159:Src/gps.c     ****                                             cont_time++;
 840              		.loc 1 159 54 view .LVU228
 841 0130 D8E7     		b	.L38
 842              	.L80:
 155:Src/gps.c     ****                                             gps->hour[cont_time] = string_gps[i];
 843              		.loc 1 155 45 is_stmt 1 view .LVU229
 155:Src/gps.c     ****                                             gps->hour[cont_time] = string_gps[i];
 844              		.loc 1 155 66 is_stmt 0 view .LVU230
 845 0132 08EB0206 		add	r6, r8, r2
 846 0136 86F85810 		strb	r1, [r6, #88]
 156:Src/gps.c     ****                                             cont_time++;
 847              		.loc 1 156 45 is_stmt 1 view .LVU231
 156:Src/gps.c     ****                                             cont_time++;
 848              		.loc 1 156 54 is_stmt 0 view .LVU232
 849 013a 0132     		adds	r2, r2, #1
 850              	.LVL48:
 156:Src/gps.c     ****                                             cont_time++;
 851              		.loc 1 156 54 view .LVU233
 852 013c D2E7     		b	.L38
 853              	.L41:
 160:Src/gps.c     ****                                         }else if(cont_time <6){
 854              		.loc 1 160 47 is_stmt 1 view .LVU234
ARM GAS  /tmp/ccLv14hQ.s 			page 26


 160:Src/gps.c     ****                                         }else if(cont_time <6){
 855              		.loc 1 160 49 is_stmt 0 view .LVU235
 856 013e 052A     		cmp	r2, #5
 857 0140 D0DC     		bgt	.L38
 161:Src/gps.c     ****                                             gps->sec[cont_time % 2] = string_gps[i];
 858              		.loc 1 161 45 is_stmt 1 view .LVU236
 161:Src/gps.c     ****                                             gps->sec[cont_time % 2] = string_gps[i];
 859              		.loc 1 161 64 is_stmt 0 view .LVU237
 860 0142 002A     		cmp	r2, #0
 861 0144 02F00106 		and	r6, r2, #1
 862 0148 B8BF     		it	lt
 863 014a 7642     		rsblt	r6, r6, #0
 161:Src/gps.c     ****                                             gps->sec[cont_time % 2] = string_gps[i];
 864              		.loc 1 161 69 view .LVU238
 865 014c 4644     		add	r6, r6, r8
 866 014e 86F85E10 		strb	r1, [r6, #94]
 162:Src/gps.c     ****                                             cont_time++;
 867              		.loc 1 162 45 is_stmt 1 view .LVU239
 162:Src/gps.c     ****                                             cont_time++;
 868              		.loc 1 162 54 is_stmt 0 view .LVU240
 869 0152 0132     		adds	r2, r2, #1
 870              	.LVL49:
 162:Src/gps.c     ****                                             cont_time++;
 871              		.loc 1 162 54 view .LVU241
 872 0154 C6E7     		b	.L38
 873              	.L74:
 169:Src/gps.c     ****                                         gps->latitude[cont_latitude] = string_gps[i];
 874              		.loc 1 169 41 is_stmt 1 view .LVU242
 169:Src/gps.c     ****                                         gps->latitude[cont_latitude] = string_gps[i];
 875              		.loc 1 169 70 is_stmt 0 view .LVU243
 876 0156 08EB0C06 		add	r6, r8, ip
 877 015a 3173     		strb	r1, [r6, #12]
 170:Src/gps.c     ****                                         cont_latitude++;
 878              		.loc 1 170 41 is_stmt 1 view .LVU244
 170:Src/gps.c     ****                                         cont_latitude++;
 879              		.loc 1 170 54 is_stmt 0 view .LVU245
 880 015c 0CF1010C 		add	ip, ip, #1
 881              	.LVL50:
 170:Src/gps.c     ****                                         cont_latitude++;
 882              		.loc 1 170 54 view .LVU246
 883 0160 C0E7     		b	.L38
 884              	.L75:
 174:Src/gps.c     ****                                         gps->latitude_o[0] = string_gps[i];
 885              		.loc 1 174 41 is_stmt 1 view .LVU247
 174:Src/gps.c     ****                                         gps->latitude_o[0] = string_gps[i];
 886              		.loc 1 174 60 is_stmt 0 view .LVU248
 887 0162 88F81C10 		strb	r1, [r8, #28]
 888 0166 BDE7     		b	.L38
 889              	.L76:
 178:Src/gps.c     ****                                         gps->longitude[cont_longitude] = string_gps[i];
 890              		.loc 1 178 41 is_stmt 1 view .LVU249
 178:Src/gps.c     ****                                         gps->longitude[cont_longitude] = string_gps[i];
 891              		.loc 1 178 72 is_stmt 0 view .LVU250
 892 0168 08EB0E06 		add	r6, r8, lr
 893 016c 86F82C10 		strb	r1, [r6, #44]
 179:Src/gps.c     ****                                         cont_longitude++;
 894              		.loc 1 179 41 is_stmt 1 view .LVU251
ARM GAS  /tmp/ccLv14hQ.s 			page 27


 179:Src/gps.c     ****                                         cont_longitude++;
 895              		.loc 1 179 55 is_stmt 0 view .LVU252
 896 0170 0EF1010E 		add	lr, lr, #1
 897              	.LVL51:
 179:Src/gps.c     ****                                         cont_longitude++;
 898              		.loc 1 179 55 view .LVU253
 899 0174 B6E7     		b	.L38
 900              	.L77:
 183:Src/gps.c     ****                                         gps->longitude_o[0] = string_gps[i];
 901              		.loc 1 183 41 is_stmt 1 view .LVU254
 183:Src/gps.c     ****                                         gps->longitude_o[0] = string_gps[i];
 902              		.loc 1 183 61 is_stmt 0 view .LVU255
 903 0176 88F83C10 		strb	r1, [r8, #60]
 904 017a B3E7     		b	.L38
 905              	.L78:
 187:Src/gps.c     ****                                         gps->fix_status = string_gps[i];
 906              		.loc 1 187 41 is_stmt 1 view .LVU256
 187:Src/gps.c     ****                                         gps->fix_status = string_gps[i];
 907              		.loc 1 187 57 is_stmt 0 view .LVU257
 908 017c 88F86110 		strb	r1, [r8, #97]
 909 0180 B0E7     		b	.L38
 910              	.L79:
 191:Src/gps.c     ****                                         gps->altitude[cont_altitude] = string_gps[i];
 911              		.loc 1 191 41 is_stmt 1 view .LVU258
 191:Src/gps.c     ****                                         gps->altitude[cont_altitude] = string_gps[i];
 912              		.loc 1 191 70 is_stmt 0 view .LVU259
 913 0182 08EB0906 		add	r6, r8, r9
 914 0186 86F84C10 		strb	r1, [r6, #76]
 192:Src/gps.c     ****                                         cont_altitude++;
 915              		.loc 1 192 41 is_stmt 1 view .LVU260
 192:Src/gps.c     ****                                         cont_altitude++;
 916              		.loc 1 192 54 is_stmt 0 view .LVU261
 917 018a 09F10109 		add	r9, r9, #1
 918              	.LVL52:
 192:Src/gps.c     ****                                         cont_altitude++;
 919              		.loc 1 192 54 view .LVU262
 920 018e A9E7     		b	.L38
 921              	.LVL53:
 922              	.L70:
 146:Src/gps.c     ****                             for (int i = 5; i < 100; i++)
 923              		.loc 1 146 38 view .LVU263
 924 0190 0523     		movs	r3, #5
 925              	.LBE6:
 145:Src/gps.c     ****                             int cont_comma = 0, cont_latitude = 0, cont_longitude = 0, cont_altitud
 926              		.loc 1 145 107 view .LVU264
 927 0192 0022     		movs	r2, #0
 145:Src/gps.c     ****                             int cont_comma = 0, cont_latitude = 0, cont_longitude = 0, cont_altitud
 928              		.loc 1 145 88 view .LVU265
 929 0194 9146     		mov	r9, r2
 145:Src/gps.c     ****                             int cont_comma = 0, cont_latitude = 0, cont_longitude = 0, cont_altitud
 930              		.loc 1 145 68 view .LVU266
 931 0196 9646     		mov	lr, r2
 145:Src/gps.c     ****                             int cont_comma = 0, cont_latitude = 0, cont_longitude = 0, cont_altitud
 932              		.loc 1 145 49 view .LVU267
 933 0198 9446     		mov	ip, r2
 145:Src/gps.c     ****                             int cont_comma = 0, cont_latitude = 0, cont_longitude = 0, cont_altitud
 934              		.loc 1 145 33 view .LVU268
ARM GAS  /tmp/ccLv14hQ.s 			page 28


 935 019a 1046     		mov	r0, r2
 936 019c A3E7     		b	.L35
 937              	.LVL54:
 938              	.L71:
 202:Src/gps.c     ****                             if (gps->fix_status == '0')
 939              		.loc 1 202 29 is_stmt 1 view .LVU269
 202:Src/gps.c     ****                             if (gps->fix_status == '0')
 940              		.loc 1 202 36 is_stmt 0 view .LVU270
 941 019e 98F86130 		ldrb	r3, [r8, #97]	@ zero_extendqisi2
 942              	.LVL55:
 202:Src/gps.c     ****                             if (gps->fix_status == '0')
 943              		.loc 1 202 32 view .LVU271
 944 01a2 302B     		cmp	r3, #48
 945 01a4 74D0     		beq	.L81
 946              	.LBB7:
 215:Src/gps.c     ****                                 char txt[100];
 947              		.loc 1 215 33 is_stmt 1 view .LVU272
 216:Src/gps.c     ****                                 gps->latitude_i = (long int)(atof(gps->latitude) * 100);
 948              		.loc 1 216 33 view .LVU273
 216:Src/gps.c     ****                                 gps->latitude_i = (long int)(atof(gps->latitude) * 100);
 949              		.loc 1 216 62 is_stmt 0 view .LVU274
 950 01a6 08F10C00 		add	r0, r8, #12
 951              	.LVL56:
 216:Src/gps.c     ****                                 gps->latitude_i = (long int)(atof(gps->latitude) * 100);
 952              		.loc 1 216 62 view .LVU275
 953 01aa FFF7FEFF 		bl	atof
 954              	.LVL57:
 216:Src/gps.c     ****                                 gps->latitude_i = (long int)(atof(gps->latitude) * 100);
 955              		.loc 1 216 82 view .LVU276
 956 01ae 9FED568B 		vldr.64	d8, .L87
 957 01b2 20EE080B 		vmul.f64	d0, d0, d8
 216:Src/gps.c     ****                                 gps->latitude_i = (long int)(atof(gps->latitude) * 100);
 958              		.loc 1 216 51 view .LVU277
 959 01b6 FDEEC07B 		vcvt.s32.f64	s15, d0
 960 01ba 17EE902A 		vmov	r2, s15	@ int
 216:Src/gps.c     ****                                 gps->latitude_i = (long int)(atof(gps->latitude) * 100);
 961              		.loc 1 216 49 view .LVU278
 962 01be C8ED087A 		vstr.32	s15, [r8, #32]	@ int
 217:Src/gps.c     ****                                 sprintf(txt,"latitude %ld %c", gps->latitude_i, gps->latitude_o[0])
 963              		.loc 1 217 33 is_stmt 1 view .LVU279
 964 01c2 98F81C30 		ldrb	r3, [r8, #28]	@ zero_extendqisi2
 965 01c6 5A49     		ldr	r1, .L87+40
 966 01c8 04A8     		add	r0, sp, #16
 967 01ca FFF7FEFF 		bl	sprintf
 968              	.LVL58:
 218:Src/gps.c     ****                                 HAL_UART_Transmit(&huart3,(uint8_t*)txt,strlen(txt),10);
 969              		.loc 1 218 33 view .LVU280
 218:Src/gps.c     ****                                 HAL_UART_Transmit(&huart3,(uint8_t*)txt,strlen(txt),10);
 970              		.loc 1 218 73 is_stmt 0 view .LVU281
 971 01ce 04A8     		add	r0, sp, #16
 972 01d0 FFF7FEFF 		bl	strlen
 973              	.LVL59:
 218:Src/gps.c     ****                                 HAL_UART_Transmit(&huart3,(uint8_t*)txt,strlen(txt),10);
 974              		.loc 1 218 33 view .LVU282
 975 01d4 554E     		ldr	r6, .L87+36
 976 01d6 0A23     		movs	r3, #10
 977 01d8 82B2     		uxth	r2, r0
ARM GAS  /tmp/ccLv14hQ.s 			page 29


 978 01da 04A9     		add	r1, sp, #16
 979 01dc 3046     		mov	r0, r6
 980 01de FFF7FEFF 		bl	HAL_UART_Transmit
 981              	.LVL60:
 219:Src/gps.c     ****                                 gps->longitude_i = (long int)(atof(gps->longitude) * 100);
 982              		.loc 1 219 33 is_stmt 1 view .LVU283
 219:Src/gps.c     ****                                 gps->longitude_i = (long int)(atof(gps->longitude) * 100);
 983              		.loc 1 219 63 is_stmt 0 view .LVU284
 984 01e2 08F12C00 		add	r0, r8, #44
 985 01e6 FFF7FEFF 		bl	atof
 986              	.LVL61:
 219:Src/gps.c     ****                                 gps->longitude_i = (long int)(atof(gps->longitude) * 100);
 987              		.loc 1 219 84 view .LVU285
 988 01ea 20EE080B 		vmul.f64	d0, d0, d8
 219:Src/gps.c     ****                                 gps->longitude_i = (long int)(atof(gps->longitude) * 100);
 989              		.loc 1 219 52 view .LVU286
 990 01ee FDEEC07B 		vcvt.s32.f64	s15, d0
 991 01f2 17EE902A 		vmov	r2, s15	@ int
 219:Src/gps.c     ****                                 gps->longitude_i = (long int)(atof(gps->longitude) * 100);
 992              		.loc 1 219 50 view .LVU287
 993 01f6 C8ED107A 		vstr.32	s15, [r8, #64]	@ int
 220:Src/gps.c     ****                                 sprintf(txt,"longitude %ld %c",gps->longitude_i, gps->longitude_o[0
 994              		.loc 1 220 33 is_stmt 1 view .LVU288
 995 01fa 98F83C30 		ldrb	r3, [r8, #60]	@ zero_extendqisi2
 996 01fe 4D49     		ldr	r1, .L87+44
 997 0200 04A8     		add	r0, sp, #16
 998 0202 FFF7FEFF 		bl	sprintf
 999              	.LVL62:
 221:Src/gps.c     ****                                 HAL_UART_Transmit(&huart3,(uint8_t*)txt,strlen(txt),10);
 1000              		.loc 1 221 33 view .LVU289
 221:Src/gps.c     ****                                 HAL_UART_Transmit(&huart3,(uint8_t*)txt,strlen(txt),10);
 1001              		.loc 1 221 73 is_stmt 0 view .LVU290
 1002 0206 04A8     		add	r0, sp, #16
 1003 0208 FFF7FEFF 		bl	strlen
 1004              	.LVL63:
 221:Src/gps.c     ****                                 HAL_UART_Transmit(&huart3,(uint8_t*)txt,strlen(txt),10);
 1005              		.loc 1 221 33 view .LVU291
 1006 020c 0A23     		movs	r3, #10
 1007 020e 82B2     		uxth	r2, r0
 1008 0210 04A9     		add	r1, sp, #16
 1009 0212 3046     		mov	r0, r6
 1010 0214 FFF7FEFF 		bl	HAL_UART_Transmit
 1011              	.LVL64:
 222:Src/gps.c     ****                                 sprintf(txt,"time %c%c:%c%c:%c%c", gps->hour[0], gps->hour[1], gps-
 1012              		.loc 1 222 33 is_stmt 1 view .LVU292
 222:Src/gps.c     ****                                 sprintf(txt,"time %c%c:%c%c:%c%c", gps->hour[0], gps->hour[1], gps-
 1013              		.loc 1 222 104 is_stmt 0 view .LVU293
 1014 0218 98F85B30 		ldrb	r3, [r8, #91]	@ zero_extendqisi2
 222:Src/gps.c     ****                                 sprintf(txt,"time %c%c:%c%c:%c%c", gps->hour[0], gps->hour[1], gps-
 1015              		.loc 1 222 117 view .LVU294
 1016 021c 98F85C20 		ldrb	r2, [r8, #92]	@ zero_extendqisi2
 222:Src/gps.c     ****                                 sprintf(txt,"time %c%c:%c%c:%c%c", gps->hour[0], gps->hour[1], gps-
 1017              		.loc 1 222 130 view .LVU295
 1018 0220 98F85E10 		ldrb	r1, [r8, #94]	@ zero_extendqisi2
 222:Src/gps.c     ****                                 sprintf(txt,"time %c%c:%c%c:%c%c", gps->hour[0], gps->hour[1], gps-
 1019              		.loc 1 222 143 view .LVU296
 1020 0224 98F85F00 		ldrb	r0, [r8, #95]	@ zero_extendqisi2
ARM GAS  /tmp/ccLv14hQ.s 			page 30


 222:Src/gps.c     ****                                 sprintf(txt,"time %c%c:%c%c:%c%c", gps->hour[0], gps->hour[1], gps-
 1021              		.loc 1 222 33 view .LVU297
 1022 0228 0390     		str	r0, [sp, #12]
 1023 022a 0291     		str	r1, [sp, #8]
 1024 022c 0192     		str	r2, [sp, #4]
 1025 022e 0093     		str	r3, [sp]
 1026 0230 98F85930 		ldrb	r3, [r8, #89]	@ zero_extendqisi2
 1027 0234 98F85820 		ldrb	r2, [r8, #88]	@ zero_extendqisi2
 1028 0238 3F49     		ldr	r1, .L87+48
 1029 023a 04A8     		add	r0, sp, #16
 1030 023c FFF7FEFF 		bl	sprintf
 1031              	.LVL65:
 223:Src/gps.c     ****                                 HAL_UART_Transmit(&huart3,(uint8_t*)txt,strlen(txt),10);
 1032              		.loc 1 223 33 is_stmt 1 view .LVU298
 223:Src/gps.c     ****                                 HAL_UART_Transmit(&huart3,(uint8_t*)txt,strlen(txt),10);
 1033              		.loc 1 223 73 is_stmt 0 view .LVU299
 1034 0240 04A8     		add	r0, sp, #16
 1035 0242 FFF7FEFF 		bl	strlen
 1036              	.LVL66:
 223:Src/gps.c     ****                                 HAL_UART_Transmit(&huart3,(uint8_t*)txt,strlen(txt),10);
 1037              		.loc 1 223 33 view .LVU300
 1038 0246 0A23     		movs	r3, #10
 1039 0248 82B2     		uxth	r2, r0
 1040 024a 04A9     		add	r1, sp, #16
 1041 024c 3046     		mov	r0, r6
 1042 024e FFF7FEFF 		bl	HAL_UART_Transmit
 1043              	.LVL67:
 224:Src/gps.c     ****                                 gps->altitude_i = (int)(atof(gps->altitude) * 10);
 1044              		.loc 1 224 33 is_stmt 1 view .LVU301
 224:Src/gps.c     ****                                 gps->altitude_i = (int)(atof(gps->altitude) * 10);
 1045              		.loc 1 224 57 is_stmt 0 view .LVU302
 1046 0252 08F14C00 		add	r0, r8, #76
 1047 0256 FFF7FEFF 		bl	atof
 1048              	.LVL68:
 224:Src/gps.c     ****                                 gps->altitude_i = (int)(atof(gps->altitude) * 10);
 1049              		.loc 1 224 77 view .LVU303
 1050 025a B2EE047B 		vmov.f64	d7, #1.0e+1
 1051 025e 20EE077B 		vmul.f64	d7, d0, d7
 224:Src/gps.c     ****                                 gps->altitude_i = (int)(atof(gps->altitude) * 10);
 1052              		.loc 1 224 51 view .LVU304
 1053 0262 BDEEC77B 		vcvt.s32.f64	s14, d7
 224:Src/gps.c     ****                                 gps->altitude_i = (int)(atof(gps->altitude) * 10);
 1054              		.loc 1 224 49 view .LVU305
 1055 0266 88ED157A 		vstr.32	s14, [r8, #84]	@ int
 225:Src/gps.c     ****                                 gps->latitude_i_h = (int)(gps->latitude_i >> 16);
 1056              		.loc 1 225 33 is_stmt 1 view .LVU306
 225:Src/gps.c     ****                                 gps->latitude_i_h = (int)(gps->latitude_i >> 16);
 1057              		.loc 1 225 62 is_stmt 0 view .LVU307
 1058 026a D8F82030 		ldr	r3, [r8, #32]
 225:Src/gps.c     ****                                 gps->latitude_i_h = (int)(gps->latitude_i >> 16);
 1059              		.loc 1 225 75 view .LVU308
 1060 026e 1A14     		asrs	r2, r3, #16
 225:Src/gps.c     ****                                 gps->latitude_i_h = (int)(gps->latitude_i >> 16);
 1061              		.loc 1 225 51 view .LVU309
 1062 0270 C8F82420 		str	r2, [r8, #36]
 226:Src/gps.c     ****                                 gps->latitude_i_l = (int)(gps->latitude_i - (gps->latitude_i_h << 1
 1063              		.loc 1 226 33 is_stmt 1 view .LVU310
ARM GAS  /tmp/ccLv14hQ.s 			page 31


 226:Src/gps.c     ****                                 gps->latitude_i_l = (int)(gps->latitude_i - (gps->latitude_i_h << 1
 1064              		.loc 1 226 75 is_stmt 0 view .LVU311
 1065 0274 A3EB0243 		sub	r3, r3, r2, lsl #16
 226:Src/gps.c     ****                                 gps->latitude_i_l = (int)(gps->latitude_i - (gps->latitude_i_h << 1
 1066              		.loc 1 226 51 view .LVU312
 1067 0278 C8F82830 		str	r3, [r8, #40]
 227:Src/gps.c     ****                                 gps->longitude_i_h = (int)(gps->longitude_i >> 16);
 1068              		.loc 1 227 33 is_stmt 1 view .LVU313
 227:Src/gps.c     ****                                 gps->longitude_i_h = (int)(gps->longitude_i >> 16);
 1069              		.loc 1 227 63 is_stmt 0 view .LVU314
 1070 027c D8F84030 		ldr	r3, [r8, #64]
 227:Src/gps.c     ****                                 gps->longitude_i_h = (int)(gps->longitude_i >> 16);
 1071              		.loc 1 227 77 view .LVU315
 1072 0280 1A14     		asrs	r2, r3, #16
 227:Src/gps.c     ****                                 gps->longitude_i_h = (int)(gps->longitude_i >> 16);
 1073              		.loc 1 227 52 view .LVU316
 1074 0282 C8F84420 		str	r2, [r8, #68]
 228:Src/gps.c     ****                                 gps->longitude_i_l = (int)(gps->longitude_i - (gps->longitude_i_h <
 1075              		.loc 1 228 33 is_stmt 1 view .LVU317
 228:Src/gps.c     ****                                 gps->longitude_i_l = (int)(gps->longitude_i - (gps->longitude_i_h <
 1076              		.loc 1 228 77 is_stmt 0 view .LVU318
 1077 0286 A3EB0243 		sub	r3, r3, r2, lsl #16
 228:Src/gps.c     ****                                 gps->longitude_i_l = (int)(gps->longitude_i - (gps->longitude_i_h <
 1078              		.loc 1 228 52 view .LVU319
 1079 028a C8F84830 		str	r3, [r8, #72]
 1080 028e F0E6     		b	.L50
 1081              	.LVL69:
 1082              	.L81:
 228:Src/gps.c     ****                                 gps->longitude_i_l = (int)(gps->longitude_i - (gps->longitude_i_h <
 1083              		.loc 1 228 52 view .LVU320
 1084              	.LBE7:
 1085              	.LBB8:
 204:Src/gps.c     ****                                 char txt[100];
 1086              		.loc 1 204 33 is_stmt 1 view .LVU321
 205:Src/gps.c     ****                                 sprintf(txt,"NO CONNECTION\r\n");
 1087              		.loc 1 205 33 view .LVU322
 1088 0290 04AE     		add	r6, sp, #16
 1089 0292 2A4B     		ldr	r3, .L87+52
 1090 0294 0FCB     		ldm	r3, {r0, r1, r2, r3}
 1091              	.LVL70:
 205:Src/gps.c     ****                                 sprintf(txt,"NO CONNECTION\r\n");
 1092              		.loc 1 205 33 is_stmt 0 view .LVU323
 1093 0296 86E80F00 		stm	r6, {r0, r1, r2, r3}
 206:Src/gps.c     ****                                 HAL_UART_Transmit(&huart3,(uint8_t*)txt,strlen(txt),10);
 1094              		.loc 1 206 33 is_stmt 1 view .LVU324
 206:Src/gps.c     ****                                 HAL_UART_Transmit(&huart3,(uint8_t*)txt,strlen(txt),10);
 1095              		.loc 1 206 73 is_stmt 0 view .LVU325
 1096 029a 3046     		mov	r0, r6
 1097 029c FFF7FEFF 		bl	strlen
 1098              	.LVL71:
 206:Src/gps.c     ****                                 HAL_UART_Transmit(&huart3,(uint8_t*)txt,strlen(txt),10);
 1099              		.loc 1 206 33 view .LVU326
 1100 02a0 0A23     		movs	r3, #10
 1101 02a2 82B2     		uxth	r2, r0
 1102 02a4 3146     		mov	r1, r6
 1103 02a6 2148     		ldr	r0, .L87+36
 1104 02a8 FFF7FEFF 		bl	HAL_UART_Transmit
ARM GAS  /tmp/ccLv14hQ.s 			page 32


 1105              	.LVL72:
 207:Src/gps.c     ****                                 gps->latitude_i_h = 0;
 1106              		.loc 1 207 33 is_stmt 1 view .LVU327
 207:Src/gps.c     ****                                 gps->latitude_i_h = 0;
 1107              		.loc 1 207 51 is_stmt 0 view .LVU328
 1108 02ac 0023     		movs	r3, #0
 1109 02ae C8F82430 		str	r3, [r8, #36]
 208:Src/gps.c     ****                                 gps->latitude_i_l = 0;
 1110              		.loc 1 208 33 is_stmt 1 view .LVU329
 208:Src/gps.c     ****                                 gps->latitude_i_l = 0;
 1111              		.loc 1 208 51 is_stmt 0 view .LVU330
 1112 02b2 C8F82830 		str	r3, [r8, #40]
 209:Src/gps.c     ****                                 gps->longitude_i_h = 0;
 1113              		.loc 1 209 33 is_stmt 1 view .LVU331
 209:Src/gps.c     ****                                 gps->longitude_i_h = 0;
 1114              		.loc 1 209 52 is_stmt 0 view .LVU332
 1115 02b6 C8F84430 		str	r3, [r8, #68]
 210:Src/gps.c     ****                                 gps->longitude_i_l = 0;
 1116              		.loc 1 210 33 is_stmt 1 view .LVU333
 210:Src/gps.c     ****                                 gps->longitude_i_l = 0;
 1117              		.loc 1 210 52 is_stmt 0 view .LVU334
 1118 02ba C8F84830 		str	r3, [r8, #72]
 211:Src/gps.c     ****                                 gps->altitude_i = 0;
 1119              		.loc 1 211 33 is_stmt 1 view .LVU335
 211:Src/gps.c     ****                                 gps->altitude_i = 0;
 1120              		.loc 1 211 49 is_stmt 0 view .LVU336
 1121 02be C8F85430 		str	r3, [r8, #84]
 1122              	.LBE8:
 1123 02c2 D6E6     		b	.L50
 1124              	.LVL73:
 1125              	.L67:
 211:Src/gps.c     ****                                 gps->altitude_i = 0;
 1126              		.loc 1 211 49 view .LVU337
 1127              	.LBE5:
 240:Src/gps.c     ****                     else if (string_gps[2] == 'V' && string_gps[3] == 'T' && string_gps[4] == 'G')
 1128              		.loc 1 240 64 discriminator 1 view .LVU338
 1129 02c4 154B     		ldr	r3, .L87+20
 1130 02c6 DB78     		ldrb	r3, [r3, #3]	@ zero_extendqisi2
 240:Src/gps.c     ****                     else if (string_gps[2] == 'V' && string_gps[3] == 'T' && string_gps[4] == 'G')
 1131              		.loc 1 240 51 discriminator 1 view .LVU339
 1132 02c8 542B     		cmp	r3, #84
 1133 02ca 7FF4D2AE 		bne	.L50
 240:Src/gps.c     ****                     else if (string_gps[2] == 'V' && string_gps[3] == 'T' && string_gps[4] == 'G')
 1134              		.loc 1 240 88 discriminator 2 view .LVU340
 1135 02ce 134B     		ldr	r3, .L87+20
 1136 02d0 1B79     		ldrb	r3, [r3, #4]	@ zero_extendqisi2
 240:Src/gps.c     ****                     else if (string_gps[2] == 'V' && string_gps[3] == 'T' && string_gps[4] == 'G')
 1137              		.loc 1 240 75 discriminator 2 view .LVU341
 1138 02d2 472B     		cmp	r3, #71
 1139 02d4 7FF4CDAE 		bne	.L50
 242:Src/gps.c     ****                         if (checksum(string_gps, cont_string) == 1)
 1140              		.loc 1 242 25 is_stmt 1 view .LVU342
 242:Src/gps.c     ****                         if (checksum(string_gps, cont_string) == 1)
 1141              		.loc 1 242 29 is_stmt 0 view .LVU343
 1142 02d8 1048     		ldr	r0, .L87+20
 1143 02da FFF7FEFF 		bl	checksum
 1144              	.LVL74:
ARM GAS  /tmp/ccLv14hQ.s 			page 33


 1145 02de 0546     		mov	r5, r0
 1146              	.LVL75:
 242:Src/gps.c     ****                         if (checksum(string_gps, cont_string) == 1)
 1147              		.loc 1 242 28 view .LVU344
 1148 02e0 0128     		cmp	r0, #1
 1149 02e2 2DD0     		beq	.L82
 1150              	.LBB9:
 283:Src/gps.c     ****                             char txt[100];
 1151              		.loc 1 283 29 is_stmt 1 view .LVU345
 284:Src/gps.c     ****                             sprintf(txt,"CHECKSUM FAIL\r\n");
 1152              		.loc 1 284 29 view .LVU346
 1153 02e4 04AD     		add	r5, sp, #16
 1154 02e6 104B     		ldr	r3, .L87+32
 1155 02e8 0FCB     		ldm	r3, {r0, r1, r2, r3}
 1156 02ea 85E80F00 		stm	r5, {r0, r1, r2, r3}
 285:Src/gps.c     ****                             HAL_UART_Transmit(&huart3,(uint8_t*)txt,strlen(txt),10);
 1157              		.loc 1 285 29 view .LVU347
 285:Src/gps.c     ****                             HAL_UART_Transmit(&huart3,(uint8_t*)txt,strlen(txt),10);
 1158              		.loc 1 285 69 is_stmt 0 view .LVU348
 1159 02ee 2846     		mov	r0, r5
 1160 02f0 FFF7FEFF 		bl	strlen
 1161              	.LVL76:
 285:Src/gps.c     ****                             HAL_UART_Transmit(&huart3,(uint8_t*)txt,strlen(txt),10);
 1162              		.loc 1 285 29 view .LVU349
 1163 02f4 0A23     		movs	r3, #10
 1164 02f6 82B2     		uxth	r2, r0
 1165 02f8 2946     		mov	r1, r5
 1166 02fa 0C48     		ldr	r0, .L87+36
 1167 02fc FFF7FEFF 		bl	HAL_UART_Transmit
 1168              	.LVL77:
 286:Src/gps.c     ****                             ret = 0; //checksum failed
 1169              		.loc 1 286 29 is_stmt 1 view .LVU350
 286:Src/gps.c     ****                             ret = 0; //checksum failed
 1170              		.loc 1 286 33 is_stmt 0 view .LVU351
 1171 0300 0025     		movs	r5, #0
 1172 0302 B6E6     		b	.L50
 1173              	.L88:
 1174 0304 AFF30080 		.align	3
 1175              	.L87:
 1176 0308 00000000 		.word	0
 1177 030c 00005940 		.word	1079574528
 1178 0310 00000000 		.word	msg_arrived
 1179 0314 00000000 		.word	buffer_gps
 1180 0318 00000000 		.word	cont_string
 1181 031c 00000000 		.word	string_gps
 1182 0320 00000000 		.word	.LANCHOR0
 1183 0324 00000000 		.word	data_string_gps
 1184 0328 48000000 		.word	.LC19
 1185 032c 00000000 		.word	huart3
 1186 0330 10000000 		.word	.LC16
 1187 0334 20000000 		.word	.LC17
 1188 0338 34000000 		.word	.LC18
 1189 033c 00000000 		.word	.LC15
 1190              	.LVL78:
 1191              	.L82:
 286:Src/gps.c     ****                             ret = 0; //checksum failed
 1192              		.loc 1 286 33 view .LVU352
ARM GAS  /tmp/ccLv14hQ.s 			page 34


 1193              	.LBE9:
 1194              	.LBB10:
 244:Src/gps.c     ****                             cont_comma = 0;
 1195              		.loc 1 244 29 is_stmt 1 view .LVU353
 244:Src/gps.c     ****                             cont_comma = 0;
 1196              		.loc 1 244 40 is_stmt 0 view .LVU354
 1197 0340 0026     		movs	r6, #0
 1198 0342 2F4B     		ldr	r3, .L89+8
 1199 0344 1E60     		str	r6, [r3]
 245:Src/gps.c     ****                             int cont_speed = 0;
 1200              		.loc 1 245 29 is_stmt 1 view .LVU355
 1201              	.LVL79:
 246:Src/gps.c     ****                             for (int i = 5; i < cont_string; i++)
 1202              		.loc 1 246 29 view .LVU356
 1203              	.LBB11:
 246:Src/gps.c     ****                             for (int i = 5; i < cont_string; i++)
 1204              		.loc 1 246 34 view .LVU357
 246:Src/gps.c     ****                             for (int i = 5; i < cont_string; i++)
 1205              		.loc 1 246 38 is_stmt 0 view .LVU358
 1206 0346 0523     		movs	r3, #5
 246:Src/gps.c     ****                             for (int i = 5; i < cont_string; i++)
 1207              		.loc 1 246 29 view .LVU359
 1208 0348 04E0     		b	.L52
 1209              	.LVL80:
 1210              	.L84:
 249:Src/gps.c     ****                                     cont_comma++;
 1211              		.loc 1 249 37 is_stmt 1 view .LVU360
 249:Src/gps.c     ****                                     cont_comma++;
 1212              		.loc 1 249 47 is_stmt 0 view .LVU361
 1213 034a 2D49     		ldr	r1, .L89+8
 1214 034c 0A68     		ldr	r2, [r1]
 1215 034e 0132     		adds	r2, r2, #1
 1216 0350 0A60     		str	r2, [r1]
 1217              	.LVL81:
 1218              	.L54:
 246:Src/gps.c     ****                             for (int i = 5; i < cont_string; i++)
 1219              		.loc 1 246 62 is_stmt 1 discriminator 2 view .LVU362
 246:Src/gps.c     ****                             for (int i = 5; i < cont_string; i++)
 1220              		.loc 1 246 63 is_stmt 0 discriminator 2 view .LVU363
 1221 0352 0133     		adds	r3, r3, #1
 1222              	.LVL82:
 1223              	.L52:
 246:Src/gps.c     ****                             for (int i = 5; i < cont_string; i++)
 1224              		.loc 1 246 45 is_stmt 1 discriminator 1 view .LVU364
 246:Src/gps.c     ****                             for (int i = 5; i < cont_string; i++)
 1225              		.loc 1 246 47 is_stmt 0 discriminator 1 view .LVU365
 1226 0354 2B4A     		ldr	r2, .L89+12
 1227 0356 1268     		ldr	r2, [r2]
 246:Src/gps.c     ****                             for (int i = 5; i < cont_string; i++)
 1228              		.loc 1 246 29 discriminator 1 view .LVU366
 1229 0358 9A42     		cmp	r2, r3
 1230 035a 0FDD     		ble	.L83
 248:Src/gps.c     ****                                 if (string_gps[i] == ',')
 1231              		.loc 1 248 33 is_stmt 1 view .LVU367
 248:Src/gps.c     ****                                 if (string_gps[i] == ',')
 1232              		.loc 1 248 47 is_stmt 0 view .LVU368
 1233 035c 2A49     		ldr	r1, .L89+16
ARM GAS  /tmp/ccLv14hQ.s 			page 35


 1234 035e C95C     		ldrb	r1, [r1, r3]	@ zero_extendqisi2
 248:Src/gps.c     ****                                 if (string_gps[i] == ',')
 1235              		.loc 1 248 36 view .LVU369
 1236 0360 2C29     		cmp	r1, #44
 1237 0362 F2D0     		beq	.L84
 252:Src/gps.c     ****                                     if (cont_comma == 7)
 1238              		.loc 1 252 37 is_stmt 1 view .LVU370
 252:Src/gps.c     ****                                     if (cont_comma == 7)
 1239              		.loc 1 252 52 is_stmt 0 view .LVU371
 1240 0364 2648     		ldr	r0, .L89+8
 1241 0366 0068     		ldr	r0, [r0]
 252:Src/gps.c     ****                                     if (cont_comma == 7)
 1242              		.loc 1 252 40 view .LVU372
 1243 0368 0728     		cmp	r0, #7
 1244 036a 03D0     		beq	.L85
 257:Src/gps.c     ****                                     else if (cont_comma == 8)
 1245              		.loc 1 257 42 is_stmt 1 view .LVU373
 257:Src/gps.c     ****                                     else if (cont_comma == 8)
 1246              		.loc 1 257 45 is_stmt 0 view .LVU374
 1247 036c 0828     		cmp	r0, #8
 1248 036e F0D1     		bne	.L54
 259:Src/gps.c     ****                                         i = cont_string;
 1249              		.loc 1 259 43 view .LVU375
 1250 0370 1346     		mov	r3, r2
 1251              	.LVL83:
 259:Src/gps.c     ****                                         i = cont_string;
 1252              		.loc 1 259 43 view .LVU376
 1253 0372 EEE7     		b	.L54
 1254              	.LVL84:
 1255              	.L85:
 254:Src/gps.c     ****                                         gps->speed[cont_speed] = string_gps[i];
 1256              		.loc 1 254 41 is_stmt 1 view .LVU377
 254:Src/gps.c     ****                                         gps->speed[cont_speed] = string_gps[i];
 1257              		.loc 1 254 64 is_stmt 0 view .LVU378
 1258 0374 08F80610 		strb	r1, [r8, r6]
 255:Src/gps.c     ****                                         cont_speed++;
 1259              		.loc 1 255 41 is_stmt 1 view .LVU379
 255:Src/gps.c     ****                                         cont_speed++;
 1260              		.loc 1 255 51 is_stmt 0 view .LVU380
 1261 0378 0136     		adds	r6, r6, #1
 1262              	.LVL85:
 255:Src/gps.c     ****                                         cont_speed++;
 1263              		.loc 1 255 51 view .LVU381
 1264 037a EAE7     		b	.L54
 1265              	.L83:
 255:Src/gps.c     ****                                         cont_speed++;
 1266              		.loc 1 255 51 view .LVU382
 1267              	.LBE11:
 264:Src/gps.c     ****                             if (gps->fix_status == '0')
 1268              		.loc 1 264 29 is_stmt 1 view .LVU383
 264:Src/gps.c     ****                             if (gps->fix_status == '0')
 1269              		.loc 1 264 36 is_stmt 0 view .LVU384
 1270 037c 98F86130 		ldrb	r3, [r8, #97]	@ zero_extendqisi2
 1271              	.LVL86:
 264:Src/gps.c     ****                             if (gps->fix_status == '0')
 1272              		.loc 1 264 32 view .LVU385
 1273 0380 302B     		cmp	r3, #48
ARM GAS  /tmp/ccLv14hQ.s 			page 36


 1274 0382 1AD0     		beq	.L86
 1275              	.LBB12:
 273:Src/gps.c     ****                                 char txt[100];
 1276              		.loc 1 273 33 is_stmt 1 view .LVU386
 274:Src/gps.c     ****                                 gps->speed_i = (int)(atof(gps->speed) * 100);
 1277              		.loc 1 274 33 view .LVU387
 274:Src/gps.c     ****                                 gps->speed_i = (int)(atof(gps->speed) * 100);
 1278              		.loc 1 274 54 is_stmt 0 view .LVU388
 1279 0384 4046     		mov	r0, r8
 1280 0386 FFF7FEFF 		bl	atof
 1281              	.LVL87:
 274:Src/gps.c     ****                                 gps->speed_i = (int)(atof(gps->speed) * 100);
 1282              		.loc 1 274 71 view .LVU389
 1283 038a 9FED1B7B 		vldr.64	d7, .L89
 1284 038e 20EE077B 		vmul.f64	d7, d0, d7
 274:Src/gps.c     ****                                 gps->speed_i = (int)(atof(gps->speed) * 100);
 1285              		.loc 1 274 48 view .LVU390
 1286 0392 FDEEC77B 		vcvt.s32.f64	s15, d7
 1287 0396 17EE902A 		vmov	r2, s15	@ int
 274:Src/gps.c     ****                                 gps->speed_i = (int)(atof(gps->speed) * 100);
 1288              		.loc 1 274 46 view .LVU391
 1289 039a C8ED027A 		vstr.32	s15, [r8, #8]	@ int
 275:Src/gps.c     ****                                 sprintf(txt,"longitude %d",gps->speed_i);
 1290              		.loc 1 275 33 is_stmt 1 view .LVU392
 1291 039e 1B49     		ldr	r1, .L89+20
 1292 03a0 04A8     		add	r0, sp, #16
 1293 03a2 FFF7FEFF 		bl	sprintf
 1294              	.LVL88:
 276:Src/gps.c     ****                                 HAL_UART_Transmit(&huart3,(uint8_t*)txt,strlen(txt),10);
 1295              		.loc 1 276 33 view .LVU393
 276:Src/gps.c     ****                                 HAL_UART_Transmit(&huart3,(uint8_t*)txt,strlen(txt),10);
 1296              		.loc 1 276 73 is_stmt 0 view .LVU394
 1297 03a6 04A8     		add	r0, sp, #16
 1298 03a8 FFF7FEFF 		bl	strlen
 1299              	.LVL89:
 276:Src/gps.c     ****                                 HAL_UART_Transmit(&huart3,(uint8_t*)txt,strlen(txt),10);
 1300              		.loc 1 276 33 view .LVU395
 1301 03ac 0A23     		movs	r3, #10
 1302 03ae 82B2     		uxth	r2, r0
 1303 03b0 04A9     		add	r1, sp, #16
 1304 03b2 1748     		ldr	r0, .L89+24
 1305 03b4 FFF7FEFF 		bl	HAL_UART_Transmit
 1306              	.LVL90:
 1307 03b8 5BE6     		b	.L50
 1308              	.L86:
 1309              	.LBE12:
 1310              	.LBB13:
 266:Src/gps.c     ****                                 char txt[100];
 1311              		.loc 1 266 33 is_stmt 1 view .LVU396
 267:Src/gps.c     ****                                 sprintf(txt,"NO CONNECTION\r\n");
 1312              		.loc 1 267 33 view .LVU397
 1313 03ba 04AE     		add	r6, sp, #16
 1314              	.LVL91:
 267:Src/gps.c     ****                                 sprintf(txt,"NO CONNECTION\r\n");
 1315              		.loc 1 267 33 is_stmt 0 view .LVU398
 1316 03bc 154B     		ldr	r3, .L89+28
 1317 03be 0FCB     		ldm	r3, {r0, r1, r2, r3}
ARM GAS  /tmp/ccLv14hQ.s 			page 37


 1318 03c0 86E80F00 		stm	r6, {r0, r1, r2, r3}
 268:Src/gps.c     ****                                 HAL_UART_Transmit(&huart3,(uint8_t*)txt,strlen(txt),10);
 1319              		.loc 1 268 33 is_stmt 1 view .LVU399
 268:Src/gps.c     ****                                 HAL_UART_Transmit(&huart3,(uint8_t*)txt,strlen(txt),10);
 1320              		.loc 1 268 73 is_stmt 0 view .LVU400
 1321 03c4 3046     		mov	r0, r6
 1322 03c6 FFF7FEFF 		bl	strlen
 1323              	.LVL92:
 268:Src/gps.c     ****                                 HAL_UART_Transmit(&huart3,(uint8_t*)txt,strlen(txt),10);
 1324              		.loc 1 268 33 view .LVU401
 1325 03ca 0A23     		movs	r3, #10
 1326 03cc 82B2     		uxth	r2, r0
 1327 03ce 3146     		mov	r1, r6
 1328 03d0 0F48     		ldr	r0, .L89+24
 1329 03d2 FFF7FEFF 		bl	HAL_UART_Transmit
 1330              	.LVL93:
 269:Src/gps.c     ****                                 gps->speed_i = 0;
 1331              		.loc 1 269 33 is_stmt 1 view .LVU402
 269:Src/gps.c     ****                                 gps->speed_i = 0;
 1332              		.loc 1 269 46 is_stmt 0 view .LVU403
 1333 03d6 0023     		movs	r3, #0
 1334 03d8 C8F80830 		str	r3, [r8, #8]
 1335              	.LBE13:
 1336 03dc 49E6     		b	.L50
 1337              	.LVL94:
 1338              	.L68:
 269:Src/gps.c     ****                                 gps->speed_i = 0;
 1339              		.loc 1 269 46 view .LVU404
 1340              	.LBE10:
 1341              	.LBE14:
 301:Src/gps.c     ****         data_string_gps = buffer_gps[0];						  //convert a pointer into a char
 1342              		.loc 1 301 9 is_stmt 1 view .LVU405
 301:Src/gps.c     ****         data_string_gps = buffer_gps[0];						  //convert a pointer into a char
 1343              		.loc 1 301 37 is_stmt 0 view .LVU406
 1344 03de 0E4B     		ldr	r3, .L89+32
 1345 03e0 1A78     		ldrb	r2, [r3]	@ zero_extendqisi2
 301:Src/gps.c     ****         data_string_gps = buffer_gps[0];						  //convert a pointer into a char
 1346              		.loc 1 301 25 view .LVU407
 1347 03e2 0E4B     		ldr	r3, .L89+36
 1348 03e4 1A70     		strb	r2, [r3]
 303:Src/gps.c     **** 	return ret;
 1349              		.loc 1 303 2 is_stmt 1 view .LVU408
 1350              	.LVL95:
 1351              	.L28:
 304:Src/gps.c     **** }
 1352              		.loc 1 304 1 is_stmt 0 view .LVU409
 1353 03e6 2846     		mov	r0, r5
 1354 03e8 2BB0     		add	sp, sp, #172
 1355              	.LCFI8:
 1356              		.cfi_def_cfa_offset 36
 1357              		@ sp needed
 1358 03ea BDEC028B 		vldm	sp!, {d8}
 1359              	.LCFI9:
 1360              		.cfi_restore 80
 1361              		.cfi_restore 81
 1362              		.cfi_def_cfa_offset 28
 1363 03ee BDE8F083 		pop	{r4, r5, r6, r7, r8, r9, pc}
ARM GAS  /tmp/ccLv14hQ.s 			page 38


 1364              	.LVL96:
 1365              	.L90:
 304:Src/gps.c     **** }
 1366              		.loc 1 304 1 view .LVU410
 1367 03f2 00BFAFF3 		.align	3
 1367      0080
 1368              	.L89:
 1369 03f8 00000000 		.word	0
 1370 03fc 00005940 		.word	1079574528
 1371 0400 00000000 		.word	cont_comma
 1372 0404 00000000 		.word	cont_string
 1373 0408 00000000 		.word	string_gps
 1374 040c 58000000 		.word	.LC20
 1375 0410 00000000 		.word	huart3
 1376 0414 00000000 		.word	.LC15
 1377 0418 00000000 		.word	buffer_gps
 1378 041c 00000000 		.word	data_string_gps
 1379              		.cfi_endproc
 1380              	.LFE145:
 1382              		.comm	data_string_gps,1,1
 1383              		.comm	cont_comma,4,4
 1384              		.comm	cont_string,4,4
 1385              		.comm	string_gps,100,4
 1386              		.global	start_string_gps
 1387              		.section	.bss.start_string_gps,"aw",%nobits
 1388              		.align	2
 1389              		.set	.LANCHOR0,. + 0
 1392              	start_string_gps:
 1393 0000 00000000 		.space	4
 1394              		.text
 1395              	.Letext0:
 1396              		.file 2 "/usr/arm-none-eabi/include/machine/_default_types.h"
 1397              		.file 3 "/usr/arm-none-eabi/include/sys/_stdint.h"
 1398              		.file 4 "Drivers/CMSIS/Include/core_cm7.h"
 1399              		.file 5 "Drivers/CMSIS/Device/ST/STM32F7xx/Include/system_stm32f7xx.h"
 1400              		.file 6 "Drivers/CMSIS/Device/ST/STM32F7xx/Include/stm32f767xx.h"
 1401              		.file 7 "Drivers/STM32F7xx_HAL_Driver/Inc/stm32f7xx_hal_def.h"
 1402              		.file 8 "Drivers/STM32F7xx_HAL_Driver/Inc/stm32f7xx_hal_dma.h"
 1403              		.file 9 "Drivers/STM32F7xx_HAL_Driver/Inc/stm32f7xx_hal_uart.h"
 1404              		.file 10 "Drivers/STM32F7xx_HAL_Driver/Inc/stm32f7xx_hal.h"
 1405              		.file 11 "/usr/arm-none-eabi/include/sys/lock.h"
 1406              		.file 12 "/usr/arm-none-eabi/include/sys/_types.h"
 1407              		.file 13 "/usr/lib/gcc/arm-none-eabi/9.2.0/include/stddef.h"
 1408              		.file 14 "/usr/arm-none-eabi/include/sys/reent.h"
 1409              		.file 15 "/usr/arm-none-eabi/include/stdlib.h"
 1410              		.file 16 "Inc/gps.h"
 1411              		.file 17 "/usr/arm-none-eabi/include/stdio.h"
 1412              		.file 18 "/usr/arm-none-eabi/include/string.h"
ARM GAS  /tmp/ccLv14hQ.s 			page 39

